(lp0
(dp1
S'query'
p2
S"SELECT * FROM lineitem WHERE column12 >= '1996-03-03' AND column12 <= '1997-05-03' AND column1 >= 14955 AND column1 <= 74777 AND column3 >= 6 AND column3 <= 6 AND column0 >= 748314 AND column0 <= 5086175 AND column4 >= 3 AND column4 <= 46;"
p3
sS'sf_array'
p4
(lp5
F0.7228602874584563
aF0.29909276704800614
aI1
aF0.07149718848599826
aF0.8800956139715042
aI1
aI1
aI1
aI1
aI1
aI1
aI1
aF0.17776233646020015
aI1
aI1
aI1
aI1
asa(dp6
g2
S"SELECT * FROM lineitem WHERE column0 >= 518304 AND column0 <= 3395796 AND column2 >= 8759 AND column2 <= 9944 AND column1 >= 125832 AND column1 <= 167773 AND column11 >= '1994-06-15' AND column11 <= '1995-05-21' AND column4 >= 3 AND column4 <= 8;"
p7
sg4
(lp8
F0.4794570766086534
aF0.20971653240218854
aF0.11852149939637223
aI1
aF0.11978840951374013
aI1
aI1
aI1
aI1
aI1
aI1
aF0.14181911496255342
aI1
aI1
aI1
aI1
aI1
asa(dp9
g2
S"SELECT * FROM lineitem WHERE column1 >= 38177 AND column1 <= 105472 AND column11 >= '1993-04-03' AND column11 <= '1996-01-03' AND column0 >= 2932934 AND column0 <= 4774757 AND column3 >= 3 AND column3 <= 4 AND column2 >= 584 AND column2 <= 1387;"
p10
sg4
(lp11
F0.30710731076956915
aF0.33649852571520933
aF0.0806340049473315
aF0.32133642937305196
aI1
aI1
aI1
aI1
aI1
aI1
aI1
aF0.4184884227610576
aI1
aI1
aI1
aI1
aI1
asa(dp12
g2
S"SELECT * FROM lineitem WHERE column11 >= '1993-04-12' AND column11 <= '1997-05-01' AND column0 >= 559552 AND column0 <= 4363120 AND column1 >= 113824 AND column1 <= 196946 AND column12 >= '1993-01-24' AND column12 <= '1995-12-03' AND column2 >= 3764 AND column2 <= 8266;"
p13
sg4
(lp14
F0.6339038011469345
aF0.41560067419680846
aF0.4502898163121968
aI1
aI1
aI1
aI1
aI1
aI1
aI1
aI1
aF0.6161443974261879
aF0.43425806274229467
aI1
aI1
aI1
aI1
asa(dp15
g2
S"SELECT * FROM lineitem WHERE column1 >= 14380 AND column1 <= 80427 AND column0 >= 1810612 AND column0 <= 5905226 AND column12 >= '1998-04-07' AND column12 <= '1998-04-22' AND column3 >= 4 AND column3 <= 6 AND column11 >= '1994-01-27' AND column11 <= '1994-05-30';"
p16
sg4
(lp17
F0.6824892959175767
aF0.3301646416600638
aI1
aF0.3214968968783821
aI1
aI1
aI1
aI1
aI1
aI1
aI1
aF0.05163037818175153
aF0.006674481750778801
aI1
aI1
aI1
aI1
asa(dp18
g2
S"SELECT * FROM lineitem WHERE column10 >= '1994-12-06' AND column10 <= '1995-09-06' AND column3 >= 1 AND column3 <= 3 AND column2 >= 7284 AND column2 <= 7408 AND column1 >= 31919 AND column1 <= 148241 AND column12 >= '1996-08-05' AND column12 <= '1998-12-28';"
p19
sg4
(lp20
I1
aF0.5815604006855278
aF0.012560623140480719
aF0.6427401784471978
aI1
aI1
aI1
aI1
aI1
aI1
aF0.11471810291749254
aI1
aF0.3350538182684673
aI1
aI1
aI1
aI1
asa(dp21
g2
S"SELECT * FROM lineitem WHERE column4 >= 8 AND column4 <= 23 AND column1 >= 122816 AND column1 <= 144060 AND column10 >= '1993-05-16' AND column10 <= '1994-08-07' AND column0 >= 4727421 AND column0 <= 5271500 AND column3 >= 2 AND column3 <= 5;"
p22
sg4
(lp23
F0.09048650981509578
aF0.10617883211982906
aI1
aF0.6427905015900947
aF0.3199748717551362
aI1
aI1
aI1
aI1
aI1
aF0.18638592351715444
aI1
aI1
aI1
aI1
aI1
aI1
asa(dp24
g2
S"SELECT * FROM lineitem WHERE column11 >= '1998-08-27' AND column11 <= '1998-09-07' AND column2 >= 2925 AND column2 <= 8152 AND column0 >= 384495 AND column0 <= 1939665 AND column1 >= 33347 AND column1 <= 68887 AND column10 >= '1995-09-09' AND column10 <= '1997-01-10';"
p25
sg4
(lp26
F0.2592398372662869
aF0.1777400076484512
aF0.5227469770704766
aI1
aI1
aI1
aI1
aI1
aI1
aI1
aF0.2040483468764242
aF0.004828855490096589
aI1
aI1
aI1
aI1
aI1
asa(dp27
g2
S"SELECT * FROM lineitem WHERE column3 >= 6 AND column3 <= 6 AND column2 >= 7732 AND column2 <= 9095 AND column0 >= 468458 AND column0 <= 5057715 AND column12 >= '1996-03-30' AND column12 <= '1996-08-30' AND column1 >= 30514 AND column1 <= 69628;"
p28
sg4
(lp29
F0.7648384535464902
aF0.19564554844310694
aF0.13640637770851402
aF0.07149718848599826
aI1
aI1
aI1
aI1
aI1
aI1
aI1
aI1
aF0.0638289079794675
aI1
aI1
aI1
aI1
asa(dp30
g2
S"SELECT * FROM lineitem WHERE column4 >= 5 AND column4 <= 34 AND column12 >= '1993-09-20' AND column12 <= '1997-09-15' AND column10 >= '1994-03-24' AND column10 <= '1997-03-25' AND column0 >= 1977756 AND column0 <= 5972940 AND column1 >= 49015 AND column1 <= 76395;"
p31
sg4
(lp32
F0.6658226709091409
aF0.13688794685742803
aI1
aI1
aF0.5999093516896162
aI1
aI1
aI1
aI1
aI1
aF0.4573013964672154
aI1
aF0.6066854795237298
aI1
aI1
aI1
aI1
asa(dp33
g2
S"SELECT * FROM lineitem WHERE column12 >= '1993-11-13' AND column12 <= '1994-09-16' AND column0 >= 2011543 AND column0 <= 2441712 AND column3 >= 1 AND column3 <= 2 AND column2 >= 605 AND column2 <= 2510 AND column11 >= '1996-02-16' AND column11 <= '1998-05-15';"
p34
sg4
(lp35
F0.07160699958258453
aI1
aF0.1908388551318358
aF0.46421066400720523
aI1
aI1
aI1
aI1
aI1
aI1
aI1
aF0.3413565419669184
aF0.1279892488437758
aI1
aI1
aI1
aI1
asa(dp36
g2
S"SELECT * FROM lineitem WHERE column11 >= '1993-09-03' AND column11 <= '1996-07-18' AND column1 >= 116861 AND column1 <= 185372 AND column12 >= '1992-03-20' AND column12 <= '1998-01-01' AND column10 >= '1992-09-24' AND column10 <= '1995-07-01' AND column3 >= 2 AND column3 <= 6;"
p37
sg4
(lp38
I1
aF0.3426769412527297
aI1
aF0.7142876900760929
aI1
aI1
aI1
aI1
aI1
aI1
aF0.419981953654385
aF0.43676188905080054
aF0.872603631098036
aI1
aI1
aI1
aI1
asa(dp39
g2
S"SELECT * FROM lineitem WHERE column10 >= '1995-09-06' AND column10 <= '1997-09-20' AND column12 >= '1996-06-17' AND column12 <= '1997-04-11' AND column3 >= 3 AND column3 <= 4 AND column2 >= 1738 AND column2 <= 6178 AND column4 >= 28 AND column4 <= 32;"
p40
sg4
(lp41
I1
aI1
aF0.4438927783790449
aF0.32133642937305196
aF0.10005940463722762
aI1
aI1
aI1
aI1
aI1
aF0.31072207877904723
aI1
aF0.12468675093293607
aI1
aI1
aI1
aI1
asa(dp42
g2
S"SELECT * FROM lineitem WHERE column1 >= 73535 AND column1 <= 106250 AND column12 >= '1993-04-23' AND column12 <= '1994-07-20' AND column4 >= 9 AND column4 <= 41 AND column3 >= 6 AND column3 <= 6 AND column2 >= 7427 AND column2 <= 9519;"
p43
sg4
(lp44
I1
aF0.16369251893158301
aF0.20924446132991403
aF0.07149718848599826
aF0.6603109536985428
aI1
aI1
aI1
aI1
aI1
aI1
aI1
aF0.18853682129368804
aI1
aI1
aI1
aI1
asa(dp45
g2
S"SELECT * FROM lineitem WHERE column11 >= '1996-11-19' AND column11 <= '1997-07-15' AND column10 >= '1996-08-30' AND column10 <= '1998-01-25' AND column12 >= '1994-10-07' AND column12 <= '1995-06-21' AND column2 >= 2163 AND column2 <= 3963 AND column3 >= 1 AND column3 <= 5;"
p46
sg4
(lp47
I1
aI1
aF0.17995789186023164
aF0.8927398868395816
aI1
aI1
aI1
aI1
aI1
aI1
aF0.2142732763282102
aF0.09957650242492562
aF0.10748523424006638
aI1
aI1
aI1
aI1
asa(dp48
g2
S"SELECT * FROM lineitem WHERE column1 >= 93161 AND column1 <= 145116 AND column10 >= '1996-09-23' AND column10 <= '1997-01-30' AND column2 >= 4738 AND column2 <= 6504 AND column3 >= 3 AND column3 <= 6 AND column4 >= 24 AND column4 <= 32;"
p49
sg4
(lp50
I1
aF0.25965175385317807
aF0.17684902140649852
aF0.5000264113183747
aF0.18009669708550685
aI1
aI1
aI1
aI1
aI1
aF0.0543746557988674
aI1
aI1
aI1
aI1
aI1
aI1
asa(dp51
g2
S"SELECT * FROM lineitem WHERE column10 >= '1995-03-20' AND column10 <= '1998-09-30' AND column1 >= 45283 AND column1 <= 130213 AND column0 >= 867510 AND column0 <= 5314825 AND column12 >= '1998-08-31' AND column12 <= '1998-11-01' AND column11 >= '1994-08-11' AND column11 <= '1997-08-07';"
p52
sg4
(lp53
F0.7411252554691008
aF0.4245082037554062
aI1
aI1
aI1
aI1
aI1
aI1
aI1
aI1
aF0.5317734825364531
aF0.4552398139376776
aF0.01683359119778245
aI1
aI1
aI1
aI1
asa(dp54
g2
S"SELECT * FROM lineitem WHERE column1 >= 48030 AND column1 <= 173255 AND column0 >= 3724319 AND column0 <= 5514116 AND column12 >= '1992-02-12' AND column12 <= '1993-04-11' AND column3 >= 4 AND column3 <= 5 AND column11 >= '1996-12-01' AND column11 <= '1997-08-01';"
p55
sg4
(lp56
F0.2981287955855606
aF0.6261123789099374
aI1
aF0.24999970839238386
aI1
aI1
aI1
aI1
aI1
aI1
aI1
aF0.1017355652147107
aF0.16023655209820012
aI1
aI1
aI1
aI1
asa(dp57
g2
S"SELECT * FROM lineitem WHERE column3 >= 5 AND column3 <= 6 AND column0 >= 4337986 AND column0 <= 5933026 AND column2 >= 8135 AND column2 <= 8229 AND column4 >= 18 AND column4 <= 48 AND column10 >= '1992-12-14' AND column10 <= '1993-09-14';"
p58
sg4
(lp59
F0.2658193382506709
aI1
aF0.00947608109357855
aF0.17868998194532273
aF0.6204135329262491
aI1
aI1
aI1
aI1
aI1
aF0.11385211161406482
aI1
aI1
aI1
aI1
aI1
aI1
asa(dp60
g2
S"SELECT * FROM lineitem WHERE column0 >= 2474222 AND column0 <= 4521668 AND column11 >= '1995-07-16' AND column11 <= '1996-12-07' AND column3 >= 3 AND column3 <= 6 AND column10 >= '1992-07-02' AND column10 <= '1995-03-30' AND column12 >= '1993-10-18' AND column12 <= '1997-02-24';"
p61
sg4
(lp62
F0.3412432315789386
aI1
aI1
aF0.5000264113183747
aI1
aI1
aI1
aI1
aI1
aI1
aF0.4156301682242679
aF0.21282606938761567
aF0.5103696501458455
aI1
aI1
aI1
aI1
asa(dp63
g2
S"SELECT * FROM lineitem WHERE column12 >= '1992-12-18' AND column12 <= '1993-09-27' AND column4 >= 27 AND column4 <= 49 AND column2 >= 3241 AND column2 <= 9606 AND column3 >= 4 AND column3 <= 6 AND column10 >= '1992-09-03' AND column10 <= '1994-09-15';"
p64
sg4
(lp65
I1
aI1
aF0.6365619295426009
aF0.3214968968783821
aF0.4602799599747718
aI1
aI1
aI1
aI1
aI1
aF0.308162763707016
aI1
aF0.11758235623952816
aI1
aI1
aI1
aI1
asa(dp66
g2
S"SELECT * FROM lineitem WHERE column3 >= 3 AND column3 <= 5 AND column11 >= '1996-05-19' AND column11 <= '1996-10-06' AND column1 >= 37977 AND column1 <= 99098 AND column12 >= '1995-01-11' AND column12 <= '1997-03-05' AND column10 >= '1994-01-18' AND column10 <= '1998-04-30';"
p67
sg4
(lp68
I1
aF0.3056282769405862
aI1
aF0.42852922283237643
aI1
aI1
aI1
aI1
aI1
aI1
aF0.6510218347451308
aF0.05860096663758922
aF0.327159583517671
aI1
aI1
aI1
aI1
asa(dp69
g2
S"SELECT * FROM lineitem WHERE column2 >= 2397 AND column2 <= 6293 AND column10 >= '1995-08-14' AND column10 <= '1998-08-08' AND column1 >= 21799 AND column1 <= 148160 AND column3 >= 2 AND column3 <= 3 AND column12 >= '1996-01-30' AND column12 <= '1997-05-07';"
p70
sg4
(lp71
I1
aF0.6317708997261388
aF0.3895531154941124
aF0.3927907931977108
aI1
aI1
aI1
aI1
aI1
aI1
aF0.4540228936973596
aI1
aF0.19307040324334324
aI1
aI1
aI1
aI1
asa(dp72
g2
S"SELECT * FROM lineitem WHERE column12 >= '1995-12-08' AND column12 <= '1996-12-13' AND column2 >= 4501 AND column2 <= 8657 AND column3 >= 4 AND column3 <= 5 AND column11 >= '1993-03-22' AND column11 <= '1997-06-08' AND column4 >= 8 AND column4 <= 48;"
p73
sg4
(lp74
I1
aI1
aF0.41591661021976384
aF0.24999970839238386
aF0.8203607102894998
aI1
aI1
aI1
aI1
aI1
aI1
aF0.6406394371806375
aF0.15455453603978528
aI1
aI1
aI1
aI1
asa(dp75
g2
S"SELECT * FROM lineitem WHERE column3 >= 1 AND column3 <= 4 AND column10 >= '1993-06-29' AND column10 <= '1994-12-19' AND column11 >= '1995-04-10' AND column11 <= '1996-02-18' AND column0 >= 2067855 AND column0 <= 2297213 AND column4 >= 31 AND column4 <= 43;"
p76
sg4
(lp77
F0.0381491081389352
aI1
aI1
aF0.7855470933802572
aF0.26038643841288805
aI1
aI1
aI1
aI1
aI1
aF0.22396164776632732
aF0.13132090751622796
aI1
aI1
aI1
aI1
aI1
asa(dp78
g2
S"SELECT * FROM lineitem WHERE column0 >= 2128976 AND column0 <= 3445931 AND column2 >= 3914 AND column2 <= 7024 AND column11 >= '1996-03-01' AND column11 <= '1998-10-11' AND column12 >= '1995-08-31' AND column12 <= '1997-07-20' AND column10 >= '1993-09-02' AND column10 <= '1994-02-17';"
p79
sg4
(lp80
F0.21940940292924016
aI1
aF0.3111749870651193
aI1
aI1
aI1
aI1
aI1
aI1
aI1
aF0.07022694571016036
aF0.3919168035139551
aF0.28734631237174474
aI1
aI1
aI1
aI1
asa(dp81
g2
S"SELECT * FROM lineitem WHERE column11 >= '1993-11-15' AND column11 <= '1995-01-25' AND column4 >= 22 AND column4 <= 28 AND column2 >= 374 AND column2 <= 1961 AND column0 >= 2411533 AND column0 <= 2477773 AND column1 >= 61152 AND column1 <= 171277;"
p82
sg4
(lp83
F0.011061093461907296
aF0.5506379958058493
aF0.15894514694107775
aI1
aF0.14015628501895033
aI1
aI1
aI1
aI1
aI1
aI1
aF0.18139959991435067
aI1
aI1
aI1
aI1
aI1
asa(dp84
g2
S"SELECT * FROM lineitem WHERE column1 >= 55656 AND column1 <= 80899 AND column11 >= '1993-06-17' AND column11 <= '1996-01-12' AND column10 >= '1994-06-26' AND column10 <= '1998-03-09' AND column12 >= '1996-09-27' AND column12 <= '1998-02-18' AND column2 >= 7464 AND column2 <= 8716;"
p85
sg4
(lp86
I1
aF0.12622060699375043
aF0.12524663755589494
aI1
aI1
aI1
aI1
aI1
aI1
aI1
aF0.56320528426327
aF0.3911744538397641
aF0.21250213498433235
aI1
aI1
aI1
aI1
asa(dp87
g2
S"SELECT * FROM lineitem WHERE column10 >= '1992-01-27' AND column10 <= '1995-08-03' AND column2 >= 1528 AND column2 <= 8962 AND column11 >= '1992-12-26' AND column11 <= '1996-01-30' AND column3 >= 2 AND column3 <= 3 AND column1 >= 100087 AND column1 <= 143038;"
p88
sg4
(lp89
I1
aF0.21454405482889716
aF0.7434017944699531
aF0.3927907931977108
aI1
aI1
aI1
aI1
aI1
aI1
aF0.517680669664393
aF0.47030093072819423
aI1
aI1
aI1
aI1
aI1
asa(dp90
g2
S"SELECT * FROM lineitem WHERE column1 >= 4551 AND column1 <= 184297 AND column4 >= 20 AND column4 <= 27 AND column12 >= '1995-07-29' AND column12 <= '1997-08-24' AND column0 >= 1155440 AND column0 <= 5577215 AND column3 >= 2 AND column3 <= 6;"
p91
sg4
(lp92
F0.73688328113557
aF0.8988381519408987
aI1
aF0.7142876900760929
aF0.16010774484833487
aI1
aI1
aI1
aI1
aI1
aI1
aI1
aF0.3156652444546646
aI1
aI1
aI1
aI1
asa(dp93
g2
S"SELECT * FROM lineitem WHERE column1 >= 44980 AND column1 <= 112529 AND column0 >= 237563 AND column0 <= 2772582 AND column3 >= 1 AND column3 <= 3 AND column4 >= 15 AND column4 <= 36 AND column12 >= '1994-04-02' AND column12 <= '1995-08-28';"
p94
sg4
(lp95
F0.4223719696761406
aF0.3377634362374952
aI1
aF0.6427401784471978
aF0.44045364147093546
aI1
aI1
aI1
aI1
aI1
aI1
aI1
aF0.21400016496659427
aI1
aI1
aI1
aI1
asa(dp96
g2
S"SELECT * FROM lineitem WHERE column11 >= '1994-05-14' AND column11 <= '1995-06-08' AND column1 >= 51000 AND column1 <= 144283 AND column4 >= 27 AND column4 <= 35 AND column12 >= '1993-05-30' AND column12 <= '1996-11-12' AND column2 >= 907 AND column2 <= 6861;"
p97
sg4
(lp98
I1
aF0.4663528968717168
aF0.5954824148110007
aI1
aF0.18018634559834967
aI1
aI1
aI1
aI1
aI1
aI1
aF0.16267055921175963
aF0.5252191431235175
aI1
aI1
aI1
aI1
asa(dp99
g2
S"SELECT * FROM lineitem WHERE column0 >= 471367 AND column0 <= 1742037 AND column1 >= 26316 AND column1 <= 83878 AND column4 >= 38 AND column4 <= 46 AND column10 >= '1995-07-13' AND column10 <= '1998-03-02' AND column12 >= '1993-11-17' AND column12 <= '1994-09-05';"
p100
sg4
(lp101
F0.21169596490044099
aF0.2877850568593193
aI1
aI1
aF0.18006270396911292
aI1
aI1
aI1
aI1
aI1
aF0.4012477473311654
aI1
aF0.1217485125928666
aI1
aI1
aI1
aI1
asa(dp102
g2
S"SELECT * FROM lineitem WHERE column0 >= 1954060 AND column0 <= 3037828 AND column3 >= 1 AND column3 <= 4 AND column2 >= 3252 AND column2 <= 7909 AND column12 >= '1992-08-20' AND column12 <= '1995-10-09' AND column4 >= 4 AND column4 <= 29;"
p103
sg4
(lp104
F0.1804549578710311
aI1
aF0.46579600964138096
aF0.7855470933802572
aF0.5198029065780846
aI1
aI1
aI1
aI1
aI1
aI1
aI1
aF0.47607292856529887
aI1
aI1
aI1
aI1
asa(dp105
g2
S"SELECT * FROM lineitem WHERE column2 >= 6555 AND column2 <= 7651 AND column0 >= 4323725 AND column0 <= 4788616 AND column11 >= '1993-08-22' AND column11 <= '1996-04-11' AND column12 >= '1992-02-11' AND column12 <= '1997-07-01' AND column10 >= '1996-05-29' AND column10 <= '1996-10-25';"
p106
sg4
(lp107
F0.07743898527214906
aI1
aF0.10965962725881342
aI1
aI1
aI1
aI1
aI1
aI1
aI1
aF0.06246235137384679
aF0.4012150872781595
aF0.8018377945132777
aI1
aI1
aI1
aI1
asa(dp108
g2
S"SELECT * FROM lineitem WHERE column2 >= 4235 AND column2 <= 4559 AND column3 >= 2 AND column3 <= 4 AND column4 >= 28 AND column4 <= 31 AND column11 >= '1995-02-10' AND column11 <= '1998-08-13' AND column12 >= '1997-11-29' AND column12 <= '1998-06-09';"
p109
sg4
(lp110
I1
aI1
aF0.032431599267814935
aF0.5355977081307702
aF0.07995847507546389
aI1
aI1
aI1
aI1
aI1
aI1
aF0.5336259407469988
aF0.08025374861590528
aI1
aI1
aI1
aI1
asa(dp111
g2
S"SELECT * FROM lineitem WHERE column11 >= '1992-10-25' AND column11 <= '1997-01-19' AND column0 >= 2658222 AND column0 <= 4221229 AND column4 >= 18 AND column4 <= 36 AND column2 >= 5787 AND column2 <= 7374 AND column3 >= 4 AND column3 <= 6;"
p112
sg4
(lp113
F0.2606187247082466
aI1
aF0.15894897949831827
aF0.3214968968783821
aF0.3803111536580509
aI1
aI1
aI1
aI1
aI1
aI1
aF0.6436244993722104
aI1
aI1
aI1
aI1
aI1
asa(dp114
g2
S"SELECT * FROM lineitem WHERE column0 >= 3018699 AND column0 <= 3291749 AND column4 >= 27 AND column4 <= 36 AND column10 >= '1996-08-08' AND column10 <= '1997-01-04' AND column12 >= '1993-05-06' AND column12 <= '1994-06-22' AND column11 >= '1992-02-13' AND column11 <= '1998-06-29';"
p115
sg4
(lp116
F0.045511783863767585
aI1
aI1
aI1
aF0.2002442838658505
aI1
aI1
aI1
aI1
aI1
aF0.06276012440814069
aF0.9602873751398675
aF0.17142561964535516
aI1
aI1
aI1
aI1
asa(dp117
g2
S"SELECT * FROM lineitem WHERE column0 >= 3786882 AND column0 <= 3957281 AND column1 >= 19840 AND column1 <= 174030 AND column12 >= '1992-06-14' AND column12 <= '1997-03-07' AND column2 >= 4123 AND column2 <= 6401 AND column11 >= '1994-06-05' AND column11 <= '1998-05-06';"
p118
sg4
(lp119
F0.028387251581554734
aF0.7709173892286811
aF0.22793650952348815
aI1
aI1
aI1
aI1
aI1
aI1
aI1
aI1
aF0.596116453084917
aF0.7180434295388517
aI1
aI1
aI1
aI1
asa(dp120
g2
S"SELECT * FROM lineitem WHERE column3 >= 3 AND column3 <= 5 AND column0 >= 781780 AND column0 <= 4506851 AND column2 >= 3270 AND column2 <= 6996 AND column11 >= '1994-03-28' AND column11 <= '1995-07-19' AND column1 >= 117557 AND column1 <= 191346;"
p121
sg4
(lp122
F0.6207084732008435
aF0.36913191745338236
aF0.3726693677863566
aF0.42852922283237643
aI1
aI1
aI1
aI1
aI1
aI1
aI1
aF0.1993211374696624
aI1
aI1
aI1
aI1
aI1
asa(dp123
g2
S"SELECT * FROM lineitem WHERE column12 >= '1992-08-08' AND column12 <= '1993-01-21' AND column4 >= 14 AND column4 <= 44 AND column3 >= 2 AND column3 <= 5 AND column1 >= 34949 AND column1 <= 128790 AND column11 >= '1992-03-19' AND column11 <= '1993-07-09';"
p124
sg4
(lp125
I1
aF0.4690373532692963
aI1
aF0.6427905015900947
aF0.620461856474064
aI1
aI1
aI1
aI1
aI1
aI1
aF0.19710791897973995
aF0.06894687159183599
aI1
aI1
aI1
aI1
asa(dp126
g2
S"SELECT * FROM lineitem WHERE column0 >= 145967 AND column0 <= 4090274 AND column3 >= 5 AND column3 <= 6 AND column11 >= '1994-09-03' AND column11 <= '1995-10-05' AND column4 >= 15 AND column4 <= 40 AND column1 >= 7580 AND column1 <= 177418;"
p127
sg4
(lp128
F0.657247907298772
aF0.8491422153680547
aI1
aF0.17868998194532273
aF0.5204572740686677
aI1
aI1
aI1
aI1
aI1
aI1
aF0.165893906483937
aI1
aI1
aI1
aI1
aI1
asa(dp129
g2
S"SELECT * FROM lineitem WHERE column11 >= '1996-09-08' AND column11 <= '1997-10-23' AND column0 >= 2239122 AND column0 <= 3530052 AND column10 >= '1992-07-25' AND column10 <= '1998-10-28' AND column3 >= 2 AND column3 <= 5 AND column12 >= '1993-12-02' AND column12 <= '1994-10-31';"
p130
sg4
(lp131
F0.21521658530814178
aI1
aI1
aF0.6427905015900947
aI1
aI1
aI1
aI1
aI1
aI1
aF0.9379595631884543
aF0.171504603651094
aF0.1388085579336851
aI1
aI1
aI1
aI1
asa(dp132
g2
S"SELECT * FROM lineitem WHERE column1 >= 87511 AND column1 <= 122298 AND column4 >= 12 AND column4 <= 36 AND column0 >= 2096466 AND column0 <= 5098047 AND column11 >= '1992-02-18' AND column11 <= '1994-03-02' AND column10 >= '1994-12-30' AND column10 <= '1995-04-15';"
p133
sg4
(lp134
F0.5002390349287602
aF0.17392927932093752
aI1
aI1
aF0.5002898579704277
aI1
aI1
aI1
aI1
aI1
aF0.044695449171542764
aF0.30189236679572384
aI1
aI1
aI1
aI1
aI1
asa(dp135
g2
S"SELECT * FROM lineitem WHERE column0 >= 3403860 AND column0 <= 5210606 AND column11 >= '1997-08-10' AND column11 <= '1998-04-10' AND column10 >= '1995-03-27' AND column10 <= '1996-08-20' AND column1 >= 39455 AND column1 <= 135842 AND column2 >= 8332 AND column2 <= 9044;"
p136
sg4
(lp137
F0.3010878630410675
aF0.4817439468507627
aF0.07129556264856367
aI1
aI1
aI1
aI1
aI1
aI1
aI1
aF0.2135437573891287
aF0.10136264073191845
aI1
aI1
aI1
aI1
aI1
asa(dp138
g2
S"SELECT * FROM lineitem WHERE column3 >= 1 AND column3 <= 6 AND column2 >= 761 AND column2 <= 7523 AND column4 >= 12 AND column4 <= 16 AND column10 >= '1997-10-02' AND column10 <= '1998-02-26' AND column11 >= '1992-04-23' AND column11 <= '1995-04-29';"
p139
sg4
(lp140
I1
aI1
aF0.676502174976234
aF0.9642370753255799
aF0.09996842306099682
aI1
aI1
aI1
aI1
aI1
aF0.06141273058872245
aF0.4571462612154372
aI1
aI1
aI1
aI1
aI1
asa(dp141
g2
S"SELECT * FROM lineitem WHERE column10 >= '1992-09-01' AND column10 <= '1998-05-29' AND column2 >= 330 AND column2 <= 1322 AND column11 >= '1993-09-06' AND column11 <= '1995-03-08' AND column4 >= 11 AND column4 <= 24 AND column12 >= '1996-11-12' AND column12 <= '1997-05-16';"
p142
sg4
(lp143
I1
aI1
aF0.0993910399810705
aI1
aF0.279918816439671
aI1
aI1
aI1
aI1
aI1
aF0.8719142706935179
aF0.2281121406248568
aF0.07760461839810771
aI1
aI1
aI1
aI1
asa(dp144
g2
S"SELECT * FROM lineitem WHERE column10 >= '1992-02-20' AND column10 <= '1993-10-24' AND column0 >= 698292 AND column0 <= 5855348 AND column1 >= 76289 AND column1 <= 112856 AND column12 >= '1993-12-22' AND column12 <= '1995-02-28' AND column3 >= 3 AND column3 <= 4;"
p145
sg4
(lp146
F0.8593784758586386
aF0.18291279349265108
aI1
aF0.32133642937305196
aI1
aI1
aI1
aI1
aI1
aI1
aF0.2449732262550167
aI1
aF0.18024333405818654
aI1
aI1
aI1
aI1
asa(dp147
g2
S"SELECT * FROM lineitem WHERE column0 >= 1143390 AND column0 <= 4313911 AND column11 >= '1995-05-11' AND column11 <= '1998-07-07' AND column10 >= '1997-05-04' AND column10 <= '1997-06-14' AND column4 >= 6 AND column4 <= 11 AND column12 >= '1998-01-07' AND column12 <= '1998-11-05';"
p148
sg4
(lp149
F0.5284686517646843
aI1
aI1
aI1
aF0.11988472334352293
aI1
aI1
aI1
aI1
aI1
aF0.017487125523748107
aF0.48046887172014335
aF0.11525816022255493
aI1
aI1
aI1
aI1
asa(dp150
g2
S"SELECT * FROM lineitem WHERE column11 >= '1995-06-09' AND column11 <= '1995-10-05' AND column0 >= 4719598 AND column0 <= 5317013 AND column12 >= '1995-02-24' AND column12 <= '1997-06-09' AND column10 >= '1992-07-26' AND column10 <= '1995-03-25' AND column4 >= 16 AND column4 <= 34;"
p151
sg4
(lp152
F0.0994891867730118
aI1
aI1
aI1
aF0.3802243379049076
aI1
aI1
aI1
aI1
aI1
aF0.40363942968215605
aF0.04975759075453887
aF0.348837360434512
aI1
aI1
aI1
aI1
asa(dp153
g2
S"SELECT * FROM lineitem WHERE column1 >= 61755 AND column1 <= 104937 AND column2 >= 4258 AND column2 <= 9400 AND column11 >= '1992-07-07' AND column11 <= '1996-06-26' AND column4 >= 8 AND column4 <= 42 AND column10 >= '1994-06-08' AND column10 <= '1995-01-19';"
p154
sg4
(lp155
I1
aF0.21606258066074954
aF0.5143423456750008
aI1
aF0.7003903376232979
aI1
aI1
aI1
aI1
aI1
aF0.09376267972402255
aF0.6025536495526322
aI1
aI1
aI1
aI1
aI1
asa(dp156
g2
S"SELECT * FROM lineitem WHERE column10 >= '1992-10-28' AND column10 <= '1995-09-03' AND column12 >= '1992-07-22' AND column12 <= '1993-09-09' AND column1 >= 32543 AND column1 <= 86540 AND column2 >= 40 AND column2 <= 7528 AND column3 >= 2 AND column3 <= 3;"
p157
sg4
(lp158
I1
aF0.2699563338423969
aF0.7489944952813722
aF0.3927907931977108
aI1
aI1
aI1
aI1
aI1
aI1
aF0.43248292220825285
aI1
aF0.17162357955847274
aI1
aI1
aI1
aI1
asa(dp159
g2
S"SELECT * FROM lineitem WHERE column11 >= '1995-11-28' AND column11 <= '1995-12-10' AND column10 >= '1992-03-17' AND column10 <= '1993-01-31' AND column1 >= 52464 AND column1 <= 189560 AND column12 >= '1996-06-09' AND column12 <= '1996-07-06' AND column4 >= 10 AND column4 <= 32;"
p160
sg4
(lp161
I1
aF0.6856456567545072
aI1
aI1
aF0.4599703560029094
aI1
aI1
aI1
aI1
aI1
aF0.12907769510007558
aF0.005374578314557969
aF0.011625979072571138
aI1
aI1
aI1
aI1
asa(dp162
g2
S"SELECT * FROM lineitem WHERE column12 >= '1992-04-17' AND column12 <= '1996-11-23' AND column11 >= '1993-11-29' AND column11 <= '1997-01-17' AND column3 >= 2 AND column3 <= 3 AND column4 >= 15 AND column4 <= 23 AND column2 >= 2093 AND column2 <= 2375;"
p163
sg4
(lp164
I1
aI1
aF0.0283554246931663
aF0.3927907931977108
aF0.1801701822047702
aI1
aI1
aI1
aI1
aI1
aI1
aF0.47705906220656985
aF0.6968572197463347
aI1
aI1
aI1
aI1
asa(dp165
g2
S"SELECT * FROM lineitem WHERE column1 >= 83351 AND column1 <= 141160 AND column3 >= 1 AND column3 <= 1 AND column0 >= 51207 AND column0 <= 2665567 AND column2 >= 1356 AND column2 <= 7270 AND column10 >= '1994-10-20' AND column10 <= '1996-05-07';"
p166
sg4
(lp167
F0.43548514759094614
aF0.2890088090495008
aF0.5913852444879912
aF0.24994938524948698
aI1
aI1
aI1
aI1
aI1
aI1
aF0.23563311762701386
aI1
aI1
aI1
aI1
aI1
aI1
asa(dp168
g2
S"SELECT * FROM lineitem WHERE column1 >= 127863 AND column1 <= 146294 AND column11 >= '1993-07-07' AND column11 <= '1994-12-13' AND column3 >= 3 AND column3 <= 6 AND column10 >= '1993-12-10' AND column10 <= '1995-03-24' AND column12 >= '1994-11-17' AND column12 <= '1997-03-01';"
p169
sg4
(lp170
I1
aF0.09214600710022887
aI1
aF0.5000264113183747
aI1
aI1
aI1
aI1
aI1
aI1
aF0.19529095358189966
aF0.2180633421732099
aF0.3482671425702962
aI1
aI1
aI1
aI1
asa(dp171
g2
S"SELECT * FROM lineitem WHERE column11 >= '1995-06-13' AND column11 <= '1998-05-10' AND column0 >= 2020808 AND column0 <= 2047490 AND column12 >= '1996-06-12' AND column12 <= '1996-08-12' AND column4 >= 5 AND column4 <= 48 AND column2 >= 2050 AND column2 <= 4262;"
p172
sg4
(lp173
F0.004428436574926911
aI1
aF0.22114238533363662
aI1
aF0.8801910946366694
aI1
aI1
aI1
aI1
aI1
aI1
aF0.4426150371216495
aF0.025723124400642203
aI1
aI1
aI1
aI1
asa(dp174
g2
S"SELECT * FROM lineitem WHERE column2 >= 5518 AND column2 <= 8004 AND column11 >= '1994-12-24' AND column11 <= '1997-12-05' AND column12 >= '1993-09-07' AND column12 <= '1995-06-11' AND column0 >= 2804265 AND column0 <= 5109495 AND column4 >= 25 AND column4 <= 38;"
p175
sg4
(lp176
F0.38428851490906424
aI1
aF0.2488612722590342
aI1
aF0.2803327326216441
aI1
aI1
aI1
aI1
aI1
aI1
aF0.44932901087529775
aF0.2675266591848484
aI1
aI1
aI1
aI1
asa(dp177
g2
S"SELECT * FROM lineitem WHERE column0 >= 1090207 AND column0 <= 5514236 AND column2 >= 611 AND column2 <= 2537 AND column10 >= '1996-04-08' AND column10 <= '1997-12-26' AND column4 >= 10 AND column4 <= 21 AND column3 >= 2 AND column3 <= 6;"
p178
sg4
(lp179
F0.7372028830828424
aI1
aF0.19291760085249404
aF0.7142876900760929
aF0.2398017734742048
aI1
aI1
aI1
aI1
aI1
aF0.2614527224903624
aI1
aI1
aI1
aI1
aI1
aI1
asa(dp180
g2
S"SELECT * FROM lineitem WHERE column3 >= 2 AND column3 <= 6 AND column11 >= '1996-03-24' AND column11 <= '1997-06-30' AND column0 >= 1783231 AND column0 <= 5526744 AND column12 >= '1994-11-20' AND column12 <= '1998-06-24' AND column1 >= 64532 AND column1 <= 73404;"
p181
sg4
(lp182
F0.6238626678097685
aF0.04434252063957049
aI1
aF0.7142876900760929
aI1
aI1
aI1
aI1
aI1
aI1
aI1
aF0.19324103535700687
aF0.5467244549645364
aI1
aI1
aI1
aI1
asa(dp183
g2
S"SELECT * FROM lineitem WHERE column4 >= 4 AND column4 <= 35 AND column0 >= 349191 AND column0 <= 3424087 AND column2 >= 4606 AND column2 <= 5973 AND column11 >= '1993-08-12' AND column11 <= '1994-05-17' AND column10 >= '1995-12-29' AND column10 <= '1996-03-16';"
p184
sg4
(lp185
F0.5124120698891808
aI1
aF0.13678880026794574
aI1
aF0.6399635740429229
aI1
aI1
aI1
aI1
aI1
aF0.03270787665497737
aF0.11611798610781317
aI1
aI1
aI1
aI1
aI1
asa(dp186
g2
S"SELECT * FROM lineitem WHERE column4 >= 37 AND column4 <= 45 AND column1 >= 16009 AND column1 <= 186744 AND column2 >= 4122 AND column2 <= 9580 AND column10 >= '1994-06-07' AND column10 <= '1995-01-11' AND column12 >= '1993-05-10' AND column12 <= '1993-06-26';"
p187
sg4
(lp188
I1
aF0.8537852751484492
aF0.5458961227018195
aI1
aF0.18004454098045145
aI1
aI1
aI1
aI1
aI1
aF0.09083627232152156
aI1
aF0.01975649930888995
aI1
aI1
aI1
aI1
asa(dp189
g2
S"SELECT * FROM lineitem WHERE column4 >= 1 AND column4 <= 11 AND column12 >= '1994-10-16' AND column12 <= '1996-07-01' AND column1 >= 166274 AND column1 <= 196743 AND column3 >= 2 AND column3 <= 5 AND column0 >= 785657 AND column0 <= 5763308;"
p190
sg4
(lp191
F0.8293865492237822
aF0.15246046009016506
aI1
aF0.6427905015900947
aF0.21970417657091107
aI1
aI1
aI1
aI1
aI1
aI1
aI1
aF0.26009616386015166
aI1
aI1
aI1
aI1
asa(dp192
g2
S"SELECT * FROM lineitem WHERE column11 >= '1998-04-28' AND column11 <= '1998-05-07' AND column1 >= 22011 AND column1 <= 117408 AND column0 >= 1194921 AND column0 <= 5778731 AND column4 >= 28 AND column4 <= 46 AND column2 >= 1586 AND column2 <= 8462;"
p193
sg4
(lp194
F0.7639028096810396
aF0.4770495641299304
aF0.687677245357815
aI1
aF0.3803164859116029
aI1
aI1
aI1
aI1
aI1
aI1
aF0.004193317519868893
aI1
aI1
aI1
aI1
aI1
asa(dp195
g2
S"SELECT * FROM lineitem WHERE column2 >= 7857 AND column2 <= 8027 AND column4 >= 30 AND column4 <= 45 AND column12 >= '1995-06-08' AND column12 <= '1997-07-29' AND column3 >= 1 AND column3 <= 3 AND column1 >= 65073 AND column1 <= 186630;"
p196
sg4
(lp197
I1
aF0.6078865696363153
aF0.017080541190408943
aF0.6427401784471978
aF0.32026314671279066
aI1
aI1
aI1
aI1
aI1
aI1
aI1
aF0.32605880642503227
aI1
aI1
aI1
aI1
asa(dp198
g2
S"SELECT * FROM lineitem WHERE column12 >= '1994-08-23' AND column12 <= '1997-10-31' AND column3 >= 3 AND column3 <= 4 AND column2 >= 735 AND column2 <= 8186 AND column0 >= 3119490 AND column0 <= 5457841 AND column11 >= '1992-04-18' AND column11 <= '1994-12-12';"
p199
sg4
(lp200
F0.38983939085668484
aI1
aF0.7453110745074123
aF0.32133642937305196
aI1
aI1
aI1
aI1
aI1
aI1
aI1
aF0.40153069003526787
aF0.48567248465519064
aI1
aI1
aI1
aI1
asa(dp201
g2
S"SELECT * FROM lineitem WHERE column3 >= 2 AND column3 <= 4 AND column10 >= '1993-11-15' AND column10 <= '1998-02-04' AND column1 >= 46793 AND column1 <= 161470 AND column2 >= 867 AND column2 <= 5528 AND column0 >= 2550132 AND column0 <= 4513625;"
p202
sg4
(lp203
F0.3271944097986824
aF0.5733144038332237
aF0.4660987816633798
aF0.5355977081307702
aI1
aI1
aI1
aI1
aI1
aI1
aF0.6422384467145403
aI1
aI1
aI1
aI1
aI1
aI1
asa(dp204
g2
S"SELECT * FROM lineitem WHERE column1 >= 53077 AND column1 <= 87404 AND column10 >= '1997-08-23' AND column10 <= '1998-04-12' AND column4 >= 8 AND column4 <= 24 AND column3 >= 2 AND column3 <= 4 AND column0 >= 1961506 AND column0 <= 2414984;"
p205
sg4
(lp206
F0.07545188765941563
aF0.1715907528725433
aI1
aF0.5355977081307702
aF0.3399659902203137
aI1
aI1
aI1
aI1
aI1
aF0.096706916849338
aI1
aI1
aI1
aI1
aI1
aI1
asa(dp207
g2
S"SELECT * FROM lineitem WHERE column11 >= '1995-02-01' AND column11 <= '1997-11-11' AND column4 >= 7 AND column4 <= 23 AND column2 >= 3064 AND column2 <= 5619 AND column0 >= 1764345 AND column0 <= 3341996 AND column1 >= 37061 AND column1 <= 123596;"
p208
sg4
(lp209
F0.26289209768355243
aF0.4325067507163133
aF0.25542294352060374
aI1
aF0.3399898187283742
aI1
aI1
aI1
aI1
aI1
aI1
aF0.42312814988298203
aI1
aI1
aI1
aI1
aI1
asa(dp210
g2
S"SELECT * FROM lineitem WHERE column12 >= '1993-01-14' AND column12 <= '1998-09-17' AND column3 >= 2 AND column3 <= 6 AND column10 >= '1994-08-31' AND column10 <= '1994-10-03' AND column1 >= 96157 AND column1 <= 177232 AND column4 >= 25 AND column4 <= 34;"
p211
sg4
(lp212
I1
aF0.40529759390390113
aI1
aF0.7142876900760929
aF0.20011297712213277
aI1
aI1
aI1
aI1
aI1
aF0.014209622551433335
aI1
aF0.8606060606060606
aI1
aI1
aI1
aI1
asa(dp213
g2
S"SELECT * FROM lineitem WHERE column11 >= '1992-02-20' AND column11 <= '1997-04-24' AND column2 >= 7921 AND column2 <= 9217 AND column3 >= 1 AND column3 <= 5 AND column1 >= 4364 AND column1 <= 103171 AND column10 >= '1992-12-10' AND column10 <= '1995-07-28';"
p214
sg4
(lp215
I1
aF0.4940761162531254
aF0.129600755846941
aF0.8927398868395816
aI1
aI1
aI1
aI1
aI1
aI1
aF0.39937545980272326
aF0.7800742016408344
aI1
aI1
aI1
aI1
aI1
asa(dp216
g2
S"SELECT * FROM lineitem WHERE column0 >= 4216162 AND column0 <= 5208405 AND column11 >= '1993-11-30' AND column11 <= '1998-06-14' AND column12 >= '1993-02-24' AND column12 <= '1993-04-27' AND column4 >= 8 AND column4 <= 9 AND column1 >= 78270 AND column1 <= 93095;"
p217
sg4
(lp218
F0.1653508497862516
aF0.07426996033303256
aI1
aI1
aF0.04010121283773369
aI1
aI1
aI1
aI1
aI1
aI1
aF0.6901339145489706
aF0.026218857348053685
aI1
aI1
aI1
aI1
asa(dp219
g2
S"SELECT * FROM lineitem WHERE column3 >= 2 AND column3 <= 6 AND column4 >= 43 AND column4 <= 46 AND column10 >= '1995-03-09' AND column10 <= '1998-01-19' AND column11 >= '1993-03-23' AND column11 <= '1996-01-09' AND column1 >= 115572 AND column1 <= 127214;"
p220
sg4
(lp221
I1
aF0.058013418949329425
aI1
aF0.7142876900760929
aF0.07993831249172043
aI1
aI1
aI1
aI1
aI1
aF0.4366309155729298
aF0.42557982008643247
aI1
aI1
aI1
aI1
aI1
asa(dp222
g2
S"SELECT * FROM lineitem WHERE column3 >= 1 AND column3 <= 2 AND column1 >= 59145 AND column1 <= 64531 AND column12 >= '1994-04-12' AND column12 <= '1997-04-21' AND column11 >= '1994-09-10' AND column11 <= '1997-10-01' AND column4 >= 6 AND column4 <= 34;"
p223
sg4
(lp224
I1
aF0.026980369808447122
aI1
aF0.46421066400720523
aF0.5799952176350955
aI1
aI1
aI1
aI1
aI1
aI1
aF0.46563454233850976
aF0.46058489822477616
aI1
aI1
aI1
aI1
asa(dp225
g2
S"SELECT * FROM lineitem WHERE column11 >= '1992-07-08' AND column11 <= '1993-11-19' AND column0 >= 4143011 AND column0 <= 5986934 AND column1 >= 36391 AND column1 <= 162530 AND column3 >= 1 AND column3 <= 6 AND column2 >= 2693 AND column2 <= 7237;"
p226
sg4
(lp227
F0.3073790890677971
aF0.6305464810042632
aF0.4544114816749608
aF0.9642370753255799
aI1
aI1
aI1
aI1
aI1
aI1
aI1
aF0.20689677007072735
aI1
aI1
aI1
aI1
aI1
asa(dp228
g2
S"SELECT * FROM lineitem WHERE column0 >= 4599565 AND column0 <= 4762898 AND column2 >= 432 AND column2 <= 7400 AND column3 >= 2 AND column3 <= 2 AND column12 >= '1993-03-19' AND column12 <= '1994-08-06' AND column4 >= 4 AND column4 <= 7;"
p229
sg4
(lp230
F0.027300638287413467
aI1
aF0.696937703448385
aF0.21426127875771822
aF0.07976318128912228
aI1
aI1
aI1
aI1
aI1
aI1
aI1
aF0.2100822916692703
aI1
aI1
aI1
aI1
asa(dp231
g2
S"SELECT * FROM lineitem WHERE column1 >= 134702 AND column1 <= 151083 AND column3 >= 1 AND column3 <= 4 AND column4 >= 39 AND column4 <= 42 AND column12 >= '1993-02-11' AND column12 <= '1993-11-16' AND column11 >= '1992-07-24' AND column11 <= '1996-05-21';"
p232
sg4
(lp233
I1
aF0.08191957795213135
aI1
aF0.7855470933802572
aF0.08009161478134011
aI1
aI1
aI1
aI1
aI1
aI1
aF0.5806469189989028
aF0.11572139974988398
aI1
aI1
aI1
aI1
asa(dp234
g2
S"SELECT * FROM lineitem WHERE column0 >= 1092388 AND column0 <= 2022349 AND column10 >= '1993-06-10' AND column10 <= '1995-12-15' AND column12 >= '1995-02-14' AND column12 <= '1996-05-27' AND column3 >= 3 AND column3 <= 5 AND column11 >= '1995-06-03' AND column11 <= '1997-05-10';"
p235
sg4
(lp236
F0.15501161014894485
aI1
aI1
aF0.42852922283237643
aI1
aI1
aI1
aI1
aI1
aI1
aF0.3826336833457891
aF0.2948053019263599
aF0.19545575354324082
aI1
aI1
aI1
aI1
asa(dp237
g2
S"SELECT * FROM lineitem WHERE column4 >= 15 AND column4 <= 38 AND column10 >= '1992-01-16' AND column10 <= '1993-05-18' AND column12 >= '1994-02-16' AND column12 <= '1995-07-24' AND column1 >= 111533 AND column1 <= 178008 AND column0 >= 1600515 AND column0 <= 5277585;"
p238
sg4
(lp239
F0.6128127387537357
aF0.3322928773590015
aI1
aI1
aF0.4804940332915918
aI1
aI1
aI1
aI1
aI1
aF0.18288046670549213
aI1
aF0.21820031443632665
aI1
aI1
aI1
aI1
asa(dp240
g2
S"SELECT * FROM lineitem WHERE column3 >= 1 AND column3 <= 5 AND column11 >= '1994-07-26' AND column11 <= '1996-08-05' AND column2 >= 8975 AND column2 <= 9533 AND column10 >= '1993-04-12' AND column10 <= '1997-02-02' AND column0 >= 378576 AND column0 <= 1697715;"
p241
sg4
(lp242
F0.21984814741681477
aI1
aF0.05589184856733178
aF0.8927398868395816
aI1
aI1
aI1
aI1
aI1
aI1
aF0.579538476791783
aF0.3086881573148104
aI1
aI1
aI1
aI1
aI1
asa(dp243
g2
S"SELECT * FROM lineitem WHERE column11 >= '1996-12-12' AND column11 <= '1998-04-17' AND column12 >= '1996-01-10' AND column12 <= '1996-03-22' AND column2 >= 4528 AND column2 <= 5917 AND column0 >= 1395823 AND column0 <= 4049218 AND column3 >= 1 AND column3 <= 4;"
p244
sg4
(lp245
F0.44222694904281884
aI1
aF0.13901751561975367
aF0.7855470933802572
aI1
aI1
aI1
aI1
aI1
aI1
aI1
aF0.2047808652081287
aF0.030200884320925013
aI1
aI1
aI1
aI1
asa(dp246
g2
S'SELECT * FROM lineitem WHERE column1 >= 98480 AND column1 <= 127763 AND column2 >= 2463 AND column2 <= 5123 AND column0 >= 158900 AND column0 <= 2044256 AND column4 >= 13 AND column4 <= 32 AND column3 >= 2 AND column3 <= 6;'
p247
sg4
(lp248
F0.3141030607968553
aF0.14627971169171577
aF0.26598297178154756
aF0.7142876900760929
aF0.40012164203415473
aI1
aI1
aI1
aI1
aI1
aI1
aI1
aI1
aI1
aI1
aI1
aI1
asa(dp249
g2
S"SELECT * FROM lineitem WHERE column11 >= '1994-04-13' AND column11 <= '1996-04-30' AND column3 >= 4 AND column3 <= 5 AND column4 >= 7 AND column4 <= 11 AND column10 >= '1993-08-03' AND column10 <= '1997-12-20' AND column0 >= 1012741 AND column0 <= 1636092;"
p250
sg4
(lp251
F0.10383297382280088
aI1
aI1
aF0.24999970839238386
aF0.09998342002411179
aI1
aI1
aI1
aI1
aI1
aF0.6663727261896133
aF0.31170421323015424
aI1
aI1
aI1
aI1
aI1
asa(dp252
g2
S"SELECT * FROM lineitem WHERE column10 >= '1995-04-24' AND column10 <= '1996-04-30' AND column0 >= 2788716 AND column0 <= 4436922 AND column2 >= 339 AND column2 <= 3935 AND column1 >= 89717 AND column1 <= 114097 AND column3 >= 4 AND column3 <= 5;"
p253
sg4
(lp254
F0.274786689028805
aF0.1219977954464221
aF0.359569520505431
aF0.24999970839238386
aI1
aI1
aI1
aI1
aI1
aI1
aF0.1553233803488127
aI1
aI1
aI1
aI1
aI1
aI1
asa(dp255
g2
S"SELECT * FROM lineitem WHERE column3 >= 2 AND column3 <= 6 AND column12 >= '1992-02-20' AND column12 <= '1993-10-03' AND column10 >= '1995-04-10' AND column10 <= '1997-03-01' AND column2 >= 5902 AND column2 <= 6062 AND column1 >= 6969 AND column1 <= 142525;"
p256
sg4
(lp257
I1
aF0.6776147830064412
aF0.016124401475367905
aF0.7142876900760929
aI1
aI1
aI1
aI1
aI1
aI1
aF0.2883990991824156
aI1
aF0.23184005238939115
aI1
aI1
aI1
aI1
asa(dp258
g2
S"SELECT * FROM lineitem WHERE column0 >= 2053655 AND column0 <= 3755132 AND column4 >= 30 AND column4 <= 35 AND column2 >= 3429 AND column2 <= 4397 AND column12 >= '1995-09-22' AND column12 <= '1997-09-24' AND column1 >= 13328 AND column1 <= 52419;"
p259
sg4
(lp260
F0.2835934056686854
aF0.19540659683080844
aF0.0966659251501571
aI1
aF0.12016066746483837
aI1
aI1
aI1
aI1
aI1
aI1
aI1
aF0.30574225386025994
aI1
aI1
aI1
aI1
asa(dp261
g2
S"SELECT * FROM lineitem WHERE column2 >= 8327 AND column2 <= 9358 AND column10 >= '1993-03-21' AND column10 <= '1993-08-02' AND column12 >= '1992-09-09' AND column12 <= '1997-02-20' AND column3 >= 1 AND column3 <= 6 AND column11 >= '1993-10-07' AND column11 <= '1996-04-04';"
p262
sg4
(lp263
I1
aI1
aF0.10314944557060529
aF0.9642370753255799
aI1
aI1
aI1
aI1
aI1
aI1
aF0.055846691045063374
aF0.3791793828416412
aF0.6758864663239027
aI1
aI1
aI1
aI1
asa(dp264
g2
S"SELECT * FROM lineitem WHERE column2 >= 7092 AND column2 <= 7942 AND column3 >= 1 AND column3 <= 2 AND column4 >= 28 AND column4 <= 49 AND column1 >= 2728 AND column1 <= 128171 AND column12 >= '1993-05-22' AND column12 <= '1996-06-05';"
p265
sg4
(lp266
I1
aF0.627069018523749
aF0.08513959256583875
aF0.46421066400720523
aF0.44028184292680733
aI1
aI1
aI1
aI1
aI1
aI1
aI1
aF0.46194862207069737
aI1
aI1
aI1
aI1
asa(dp267
g2
S"SELECT * FROM lineitem WHERE column4 >= 4 AND column4 <= 43 AND column0 >= 2261745 AND column0 <= 2271560 AND column12 >= '1994-12-28' AND column12 <= '1997-04-12' AND column2 >= 700 AND column2 <= 8078 AND column11 >= '1993-03-31' AND column11 <= '1994-10-01';"
p268
sg4
(lp269
F0.0016564978925101
aI1
aF0.7379875575196023
aI1
aF0.8001304735791003
aI1
aI1
aI1
aI1
aI1
aI1
aF0.22839308373387723
aF0.3488018676218066
aI1
aI1
aI1
aI1
asa(dp270
g2
S"SELECT * FROM lineitem WHERE column3 >= 1 AND column3 <= 6 AND column0 >= 3545173 AND column0 <= 4045986 AND column10 >= '1993-07-13' AND column10 <= '1995-01-03' AND column1 >= 62859 AND column1 <= 172806 AND column2 >= 3510 AND column2 <= 9395;"
p271
sg4
(lp272
F0.08336628499395539
aF0.5496985193831583
aF0.5885406538509286
aF0.9642370753255799
aI1
aI1
aI1
aI1
aI1
aI1
aF0.22433073969187906
aI1
aI1
aI1
aI1
aI1
aI1
asa(dp273
g2
S"SELECT * FROM lineitem WHERE column12 >= '1996-04-03' AND column12 <= '1996-06-26' AND column2 >= 5938 AND column2 <= 7801 AND column4 >= 46 AND column4 <= 47 AND column10 >= '1993-07-04' AND column10 <= '1995-03-26' AND column3 >= 5 AND column3 <= 5;"
p274
sg4
(lp275
I1
aI1
aF0.18652639507166466
aF0.10719279345932449
aF0.04003006057939934
aI1
aI1
aI1
aI1
aI1
aF0.2622733896385982
aI1
aF0.035184041898182285
aI1
aI1
aI1
aI1
asa(dp276
g2
S"SELECT * FROM lineitem WHERE column10 >= '1995-11-02' AND column10 <= '1998-06-27' AND column0 >= 1036692 AND column0 <= 3340502 AND column3 >= 2 AND column3 <= 5 AND column4 >= 15 AND column4 <= 43 AND column1 >= 55076 AND column1 <= 155408;"
p277
sg4
(lp278
F0.38389109538651756
aF0.5016444170055564
aI1
aF0.6427905015900947
aF0.5805626027396119
aI1
aI1
aI1
aI1
aI1
aF0.4030935402247712
aI1
aI1
aI1
aI1
aI1
aI1
asa(dp279
g2
S"SELECT * FROM lineitem WHERE column0 >= 1333641 AND column0 <= 5150715 AND column3 >= 1 AND column3 <= 1 AND column1 >= 28794 AND column1 <= 152479 AND column10 >= '1994-04-17' AND column10 <= '1998-02-15' AND column4 >= 6 AND column4 <= 32;"
p280
sg4
(lp281
F0.6361453472338519
aF0.6183886096398813
aI1
aF0.24994938524948698
aF0.5399878191332922
aI1
aI1
aI1
aI1
aI1
aF0.5832738870378749
aI1
aI1
aI1
aI1
aI1
aI1
asa(dp282
g2
S"SELECT * FROM lineitem WHERE column11 >= '1994-05-17' AND column11 <= '1997-08-04' AND column12 >= '1995-04-08' AND column12 <= '1996-09-30' AND column4 >= 15 AND column4 <= 37 AND column3 >= 1 AND column3 <= 3 AND column2 >= 2041 AND column2 <= 6022;"
p283
sg4
(lp284
I1
aI1
aF0.39802473332483507
aF0.6427401784471978
aF0.4604612565955394
aI1
aI1
aI1
aI1
aI1
aI1
aF0.48968583861767995
aF0.22569063098055978
aI1
aI1
aI1
aI1
asa(dp285
g2
S"SELECT * FROM lineitem WHERE column2 >= 4873 AND column2 <= 9797 AND column0 >= 1694370 AND column0 <= 3781755 AND column4 >= 5 AND column4 <= 46 AND column3 >= 2 AND column3 <= 3 AND column10 >= '1995-10-26' AND column10 <= '1997-10-18';"
p286
sg4
(lp287
F0.3479355430525319
aI1
aF0.49260241467769444
aF0.3927907931977108
aF0.8401590344621881
aI1
aI1
aI1
aI1
aI1
aF0.301331480375224
aI1
aI1
aI1
aI1
aI1
aI1
asa(dp288
g2
S"SELECT * FROM lineitem WHERE column3 >= 3 AND column3 <= 6 AND column4 >= 14 AND column4 <= 24 AND column11 >= '1994-06-04' AND column11 <= '1995-01-11' AND column12 >= '1992-10-01' AND column12 <= '1997-12-10' AND column10 >= '1993-05-08' AND column10 <= '1998-01-10';"
p289
sg4
(lp290
I1
aI1
aI1
aF0.5000264113183747
aF0.22006060439427683
aI1
aI1
aI1
aI1
aI1
aF0.7109728613289142
aF0.09192338551443333
aF0.7887844378180086
aI1
aI1
aI1
aI1
asa(dp291
g2
S"SELECT * FROM lineitem WHERE column2 >= 1686 AND column2 <= 2639 AND column3 >= 3 AND column3 <= 4 AND column1 >= 163656 AND column1 <= 173721 AND column10 >= '1992-03-30' AND column10 <= '1997-04-20' AND column11 >= '1993-07-05' AND column11 <= '1996-10-28';"
p292
sg4
(lp293
I1
aF0.05031564441533923
aF0.09541017943866367
aF0.32133642937305196
aI1
aI1
aI1
aI1
aI1
aI1
aF0.7660223804679552
aF0.504285215577179
aI1
aI1
aI1
aI1
aI1
asa(dp294
g2
S"SELECT * FROM lineitem WHERE column4 >= 18 AND column4 <= 43 AND column10 >= '1993-02-01' AND column10 <= '1994-06-27' AND column3 >= 3 AND column3 <= 3 AND column12 >= '1992-02-01' AND column12 <= '1996-09-24' AND column2 >= 1917 AND column2 <= 6605;"
p295
sg4
(lp296
I1
aI1
aF0.46888371771382964
aF0.17852951443999257
aF0.5204201149267274
aI1
aI1
aI1
aI1
aI1
aF0.21258461828146466
aI1
aF0.6856468231849717
aI1
aI1
aI1
aI1
asa(dp297
g2
S"SELECT * FROM lineitem WHERE column0 >= 87508 AND column0 <= 5083176 AND column11 >= '1993-12-06' AND column11 <= '1997-11-08' AND column4 >= 3 AND column4 <= 47 AND column3 >= 1 AND column3 <= 2 AND column1 >= 55087 AND column1 <= 169580;"
p298
sg4
(lp299
F0.8325484089471882
aF0.5724642426575285
aI1
aF0.46421066400720523
aF0.900099896437638
aI1
aI1
aI1
aI1
aI1
aI1
aF0.5970592621660781
aI1
aI1
aI1
aI1
aI1
asa(dp300
g2
S"SELECT * FROM lineitem WHERE column4 >= 4 AND column4 <= 25 AND column2 >= 2883 AND column2 <= 5719 AND column11 >= '1993-09-02' AND column11 <= '1996-10-10' AND column0 >= 4602643 AND column0 <= 5152861 AND column10 >= '1992-06-29' AND column10 <= '1997-11-05';"
p301
sg4
(lp302
F0.09169409861169779
aI1
aF0.28347926211608815
aI1
aF0.43983093423581726
aI1
aI1
aI1
aI1
aI1
aF0.8130830173556521
aF0.47222104190568076
aI1
aI1
aI1
aI1
aI1
asa(dp303
g2
S"SELECT * FROM lineitem WHERE column2 >= 146 AND column2 <= 2800 AND column3 >= 1 AND column3 <= 1 AND column1 >= 179053 AND column1 <= 186700 AND column10 >= '1994-12-27' AND column10 <= '1996-12-02' AND column12 >= '1994-01-24' AND column12 <= '1995-08-20';"
p304
sg4
(lp305
I1
aF0.03840805570205367
aF0.2655643898777164
aF0.24994938524948698
aI1
aI1
aI1
aI1
aI1
aI1
aF0.2945831802393349
aI1
aF0.2389229514356676
aI1
aI1
aI1
aI1
asa(dp306
g2
S"SELECT * FROM lineitem WHERE column3 >= 3 AND column3 <= 5 AND column0 >= 225794 AND column0 <= 5512485 AND column12 >= '1992-04-21' AND column12 <= '1994-09-29' AND column10 >= '1992-05-17' AND column10 <= '1996-03-04' AND column2 >= 4305 AND column2 <= 5908;"
p307
sg4
(lp308
F0.8809091159040294
aI1
aF0.16038002304533333
aF0.42852922283237643
aI1
aI1
aI1
aI1
aI1
aI1
aF0.5764314393002083
aI1
aF0.36836157344804343
aI1
aI1
aI1
aI1
asa(dp309
g2
S"SELECT * FROM lineitem WHERE column10 >= '1994-05-29' AND column10 <= '1996-06-21' AND column4 >= 33 AND column4 <= 39 AND column12 >= '1993-03-20' AND column12 <= '1996-07-30' AND column0 >= 3624461 AND column0 <= 5623502 AND column1 >= 63227 AND column1 <= 172215;"
p310
sg4
(lp311
F0.3329667409016341
aF0.544895825262051
aI1
aI1
aF0.14019827651567224
aI1
aI1
aI1
aI1
aI1
aF0.31417904540997116
aI1
aF0.5109678623412093
aI1
aI1
aI1
aI1
asa(dp312
g2
S"SELECT * FROM lineitem WHERE column0 >= 4681553 AND column0 <= 5287166 AND column2 >= 7080 AND column2 <= 7626 AND column1 >= 19704 AND column1 <= 90498 AND column10 >= '1995-06-08' AND column10 <= '1997-03-22' AND column3 >= 4 AND column3 <= 4;"
p313
sg4
(lp314
F0.10080891952712909
aF0.3539899836949684
aF0.05468109374518327
aF0.1428069149330594
aI1
aI1
aI1
aI1
aI1
aI1
aF0.2723810095122404
aI1
aI1
aI1
aI1
aI1
aI1
asa(dp315
g2
S'SELECT * FROM lineitem WHERE column1 >= 22751 AND column1 <= 113206 AND column0 >= 108779 AND column0 <= 1517012 AND column2 >= 6184 AND column2 <= 8516 AND column3 >= 1 AND column3 <= 3 AND column4 >= 20 AND column4 <= 46;'
p316
sg4
(lp317
F0.23447335247945625
aF0.4523883913507515
aF0.23349954967452424
aF0.6427401784471978
aF0.5404242307599377
aI1
aI1
aI1
aI1
aI1
aI1
aI1
aI1
aI1
aI1
aI1
aI1
asa(dp318
g2
S"SELECT * FROM lineitem WHERE column3 >= 3 AND column3 <= 6 AND column10 >= '1994-03-08' AND column10 <= '1995-10-05' AND column4 >= 19 AND column4 <= 49 AND column1 >= 78425 AND column1 <= 114358 AND column2 >= 216 AND column2 <= 2683;"
p319
sg4
(lp320
I1
aF0.17980209007675946
aF0.24684401408714735
aF0.5000264113183747
aF0.6204460263463315
aI1
aI1
aI1
aI1
aI1
aF0.24042798000071652
aI1
aI1
aI1
aI1
aI1
aI1
asa(dp321
g2
S"SELECT * FROM lineitem WHERE column3 >= 4 AND column3 <= 4 AND column0 >= 268276 AND column0 <= 3228110 AND column2 >= 3260 AND column2 <= 7691 AND column1 >= 125972 AND column1 <= 132544 AND column11 >= '1994-03-17' AND column11 <= '1996-10-18';"
p322
sg4
(lp323
F0.49317396560529825
aF0.032832518081755115
aF0.44318508835294185
aF0.1428069149330594
aI1
aI1
aI1
aI1
aI1
aI1
aI1
aF0.3940935293936311
aI1
aI1
aI1
aI1
aI1
asa(dp324
g2
S"SELECT * FROM lineitem WHERE column3 >= 2 AND column3 <= 6 AND column1 >= 98932 AND column1 <= 175355 AND column0 >= 111402 AND column0 <= 3710589 AND column11 >= '1993-04-09' AND column11 <= '1996-11-29' AND column4 >= 28 AND column4 <= 30;"
p325
sg4
(lp326
F0.5998092053025929
aF0.38200997631312994
aI1
aF0.7142876900760929
aF0.059968689673674413
aI1
aI1
aI1
aI1
aI1
aI1
aF0.5536630498990621
aI1
aI1
aI1
aI1
aI1
asa(dp327
g2
S"SELECT * FROM lineitem WHERE column3 >= 3 AND column3 <= 4 AND column0 >= 1136131 AND column0 <= 2096443 AND column4 >= 1 AND column4 <= 17 AND column12 >= '1995-03-14' AND column12 <= '1997-08-22' AND column11 >= '1994-09-01' AND column11 <= '1997-06-21';"
p328
sg4
(lp329
F0.1600924146193729
aI1
aI1
aF0.32133642937305196
aF0.3396828808832878
aI1
aI1
aI1
aI1
aI1
aI1
aF0.4267527492349466
aF0.372230290032935
aI1
aI1
aI1
aI1
asa(dp330
g2
S"SELECT * FROM lineitem WHERE column10 >= '1992-07-19' AND column10 <= '1998-08-12' AND column11 >= '1992-03-03' AND column11 <= '1994-07-18' AND column1 >= 28092 AND column1 <= 64820 AND column0 >= 635318 AND column0 <= 4692220 AND column2 >= 1594 AND column2 <= 7844;"
p331
sg4
(lp332
F0.6761389152030047
aF0.18375378985755383
aF0.6250622582260426
aI1
aI1
aI1
aI1
aI1
aI1
aI1
aF0.9210831473293325
aF0.3569328877568959
aI1
aI1
aI1
aI1
aI1
asa(dp333
g2
S"SELECT * FROM lineitem WHERE column3 >= 2 AND column3 <= 4 AND column4 >= 20 AND column4 <= 47 AND column10 >= '1996-05-16' AND column10 <= '1997-01-13' AND column0 >= 2781493 AND column0 <= 4813203 AND column2 >= 3568 AND column2 <= 9572;"
p334
sg4
(lp335
F0.3387074117491208
aI1
aF0.6004734041356625
aF0.5355977081307702
aF0.5604285132260717
aI1
aI1
aI1
aI1
aI1
aF0.1013879689362904
aI1
aI1
aI1
aI1
aI1
aI1
asa(dp336
g2
S"SELECT * FROM lineitem WHERE column2 >= 3156 AND column2 <= 4746 AND column11 >= '1992-08-09' AND column11 <= '1992-08-27' AND column12 >= '1997-05-26' AND column12 <= '1998-10-20' AND column0 >= 3606529 AND column0 <= 3988818 AND column1 >= 1217 AND column1 <= 158769;"
p337
sg4
(lp338
F0.06364744472577637
aF0.787601344061161
aF0.1589766405636192
aI1
aI1
aI1
aI1
aI1
aI1
aI1
aI1
aF0.007849743760221888
aF0.20651218128329013
aI1
aI1
aI1
aI1
asa(dp339
g2
S"SELECT * FROM lineitem WHERE column0 >= 3561664 AND column0 <= 4069175 AND column10 >= '1995-05-11' AND column10 <= '1998-07-05' AND column4 >= 25 AND column4 <= 45 AND column12 >= '1992-12-18' AND column12 <= '1995-03-22' AND column1 >= 16134 AND column1 <= 117713;"
p340
sg4
(lp341
F0.08446472922566514
aF0.5078426618609732
aI1
aI1
aF0.42033688178143924
aI1
aI1
aI1
aI1
aI1
aF0.47959588183392865
aI1
aF0.34239899753633224
aI1
aI1
aI1
aI1
asa(dp342
g2
S"SELECT * FROM lineitem WHERE column12 >= '1995-07-09' AND column12 <= '1996-08-08' AND column10 >= '1994-04-12' AND column10 <= '1997-06-05' AND column1 >= 3138 AND column1 <= 153098 AND column4 >= 38 AND column4 <= 44 AND column3 >= 2 AND column3 <= 2;"
p343
sg4
(lp344
I1
aF0.7496355321380753
aI1
aF0.21426127875771822
aF0.14010129615419545
aI1
aI1
aI1
aI1
aI1
aF0.47935226449977214
aI1
aF0.16505257685318722
aI1
aI1
aI1
aI1
asa(dp345
g2
S"SELECT * FROM lineitem WHERE column1 >= 45666 AND column1 <= 142853 AND column12 >= '1992-06-29' AND column12 <= '1994-03-30' AND column11 >= '1992-09-29' AND column11 <= '1996-06-20' AND column4 >= 32 AND column4 <= 43 AND column2 >= 225 AND column2 <= 4736;"
p346
sg4
(lp347
I1
aF0.48582278755218733
aF0.4510566610261422
aI1
aF0.24039665301109858
aI1
aI1
aI1
aI1
aI1
aI1
aF0.5653880089281921
aF0.2651054828063984
aI1
aI1
aI1
aI1
asa(dp348
g2
S"SELECT * FROM lineitem WHERE column12 >= '1995-12-11' AND column12 <= '1996-09-20' AND column1 >= 44305 AND column1 <= 54084 AND column11 >= '1992-06-12' AND column11 <= '1995-05-11' AND column10 >= '1992-11-07' AND column10 <= '1997-06-23' AND column3 >= 2 AND column3 <= 4;"
p349
sg4
(lp350
I1
aF0.04880028460903334
aI1
aF0.5355977081307702
aI1
aI1
aI1
aI1
aI1
aI1
aF0.702784186202294
aF0.4414516060497749
aF0.1181034173913116
aI1
aI1
aI1
aI1
asa(dp351
g2
S"SELECT * FROM lineitem WHERE column0 >= 1131898 AND column0 <= 3768927 AND column11 >= '1995-05-18' AND column11 <= '1996-01-01' AND column3 >= 5 AND column3 <= 6 AND column1 >= 9342 AND column1 <= 138003 AND column12 >= '1993-03-20' AND column12 <= '1994-12-19';"
p352
sg4
(lp353
F0.4395236631248839
aF0.6432194147351827
aI1
aF0.17868998194532273
aI1
aI1
aI1
aI1
aI1
aI1
aI1
aF0.09557081357691734
aF0.26571036031870215
aI1
aI1
aI1
aI1
asa(dp354
g2
S"SELECT * FROM lineitem WHERE column2 >= 8330 AND column2 <= 9963 AND column11 >= '1993-02-16' AND column11 <= '1995-03-23' AND column3 >= 5 AND column3 <= 5 AND column12 >= '1995-08-30' AND column12 <= '1998-03-20' AND column0 >= 1336327 AND column0 <= 1864012;"
p355
sg4
(lp356
F0.08798335003828392
aI1
aF0.16338074873171515
aF0.10719279345932449
aI1
aI1
aI1
aI1
aI1
aI1
aI1
aF0.31806059272997217
aF0.38873944692866363
aI1
aI1
aI1
aI1
asa(dp357
g2
S"SELECT * FROM lineitem WHERE column1 >= 10511 AND column1 <= 123169 AND column3 >= 4 AND column3 <= 6 AND column12 >= '1992-10-10' AND column12 <= '1998-06-07' AND column2 >= 1117 AND column2 <= 5612 AND column4 >= 33 AND column4 <= 35;"
p358
sg4
(lp359
I1
aF0.5632081170229695
aF0.4492916851004338
aF0.3214968968783821
aF0.06012882391315758
aI1
aI1
aI1
aI1
aI1
aI1
aI1
aF0.8595424426553623
aI1
aI1
aI1
aI1
asa(dp360
g2
S"SELECT * FROM lineitem WHERE column1 >= 66508 AND column1 <= 153996 AND column2 >= 4534 AND column2 <= 6458 AND column3 >= 1 AND column3 <= 5 AND column10 >= '1998-05-06' AND column10 <= '1998-09-27' AND column0 >= 3463545 AND column0 <= 5933296;"
p361
sg4
(lp362
F0.4117017970527635
aF0.43739459426132876
aF0.19261849475481216
aF0.8927398868395816
aI1
aI1
aI1
aI1
aI1
aI1
aF0.055093343597921424
aI1
aI1
aI1
aI1
aI1
aI1
asa(dp363
g2
S"SELECT * FROM lineitem WHERE column11 >= '1997-06-03' AND column11 <= '1997-10-04' AND column12 >= '1996-02-14' AND column12 <= '1998-08-30' AND column3 >= 3 AND column3 <= 4 AND column10 >= '1995-07-31' AND column10 <= '1995-11-20' AND column4 >= 4 AND column4 <= 32;"
p364
sg4
(lp365
I1
aI1
aI1
aF0.32133642937305196
aF0.5798347501297654
aI1
aI1
aI1
aI1
aI1
aF0.0473079201461704
aF0.051813174498830654
aF0.386101314483817
aI1
aI1
aI1
aI1
asa(dp366
g2
S"SELECT * FROM lineitem WHERE column1 >= 14705 AND column1 <= 30157 AND column0 >= 384049 AND column0 <= 646895 AND column11 >= '1994-09-14' AND column11 <= '1995-05-17' AND column12 >= '1992-05-04' AND column12 <= '1994-01-25' AND column10 >= '1992-09-24' AND column10 <= '1997-02-28';"
p367
sg4
(lp368
F0.04385878526265098
aF0.07714504479509567
aI1
aI1
aI1
aI1
aI1
aI1
aI1
aI1
aF0.6732053425847933
aF0.10239826435146883
aF0.26116428089978444
aI1
aI1
aI1
aI1
asa(dp369
g2
S"SELECT * FROM lineitem WHERE column0 >= 2332923 AND column0 <= 4422088 AND column1 >= 89203 AND column1 <= 153774 AND column12 >= '1995-02-21' AND column12 <= '1995-11-13' AND column2 >= 3047 AND column2 <= 6352 AND column11 >= '1994-12-26' AND column11 <= '1995-03-08';"
p370
sg4
(lp371
F0.3482653096081377
aF0.32284629029288237
aF0.33055256310597103
aI1
aI1
aI1
aI1
aI1
aI1
aI1
aI1
aF0.03046033178281398
aF0.1112757999838366
aI1
aI1
aI1
aI1
asa(dp372
g2
S"SELECT * FROM lineitem WHERE column12 >= '1993-02-23' AND column12 <= '1997-05-11' AND column4 >= 9 AND column4 <= 9 AND column10 >= '1992-03-14' AND column10 <= '1997-09-13' AND column3 >= 1 AND column3 <= 3 AND column2 >= 389 AND column2 <= 2293;"
p373
sg4
(lp374
I1
aI1
aF0.19056224447882636
aF0.6427401784471978
aF0.020079767180479286
aI1
aI1
aI1
aI1
aI1
aF0.8313863109387016
aI1
aF0.6402618469759873
aI1
aI1
aI1
aI1
asa(dp375
g2
S"SELECT * FROM lineitem WHERE column10 >= '1992-08-19' AND column10 <= '1994-10-15' AND column12 >= '1995-01-27' AND column12 <= '1998-09-14' AND column4 >= 37 AND column4 <= 41 AND column3 >= 6 AND column3 <= 6 AND column11 >= '1994-06-22' AND column11 <= '1998-05-20';"
p376
sg4
(lp377
I1
aI1
aI1
aF0.07149718848599826
aF0.1000740683344956
aI1
aI1
aI1
aI1
aI1
aF0.3268643099772296
aF0.5949328594292989
aF0.5512583701800385
aI1
aI1
aI1
aI1
asa(dp378
g2
S"SELECT * FROM lineitem WHERE column1 >= 71318 AND column1 <= 136272 AND column0 >= 472862 AND column0 <= 5518805 AND column4 >= 19 AND column4 <= 37 AND column11 >= '1993-05-08' AND column11 <= '1996-06-27' AND column3 >= 3 AND column3 <= 3;"
p379
sg4
(lp380
F0.8408282322829627
aF0.32459460292624076
aI1
aF0.17852951443999257
aF0.38041796536201417
aI1
aI1
aI1
aI1
aI1
aI1
aF0.4768807649784252
aI1
aI1
aI1
aI1
aI1
asa(dp381
g2
S"SELECT * FROM lineitem WHERE column3 >= 5 AND column3 <= 5 AND column0 >= 6360 AND column0 <= 308583 AND column1 >= 59321 AND column1 <= 157372 AND column2 >= 4562 AND column2 <= 5989 AND column12 >= '1993-02-27' AND column12 <= '1993-11-28';"
p382
sg4
(lp383
F0.05033930629047618
aF0.4901875703503374
aF0.14283357620081932
aF0.10719279345932449
aI1
aI1
aI1
aI1
aI1
aI1
aI1
aI1
aF0.11410139446762031
aI1
aI1
aI1
aI1
asa(dp384
g2
S"SELECT * FROM lineitem WHERE column11 >= '1996-01-28' AND column11 <= '1997-12-05' AND column3 >= 4 AND column3 <= 5 AND column10 >= '1993-04-09' AND column10 <= '1998-11-08' AND column12 >= '1992-08-23' AND column12 <= '1995-05-02' AND column2 >= 206 AND column2 <= 1953;"
p385
sg4
(lp386
I1
aI1
aF0.17491891225360198
aF0.24999970839238386
aI1
aI1
aI1
aI1
aI1
aI1
aF0.8323849420492351
aF0.28233482719749253
aF0.40795505576787366
aI1
aI1
aI1
aI1
asa(dp387
g2
S"SELECT * FROM lineitem WHERE column12 >= '1992-10-02' AND column12 <= '1996-10-13' AND column2 >= 572 AND column2 <= 7020 AND column10 >= '1995-03-14' AND column10 <= '1997-05-31' AND column1 >= 41201 AND column1 <= 90581 AND column3 >= 1 AND column3 <= 2;"
p388
sg4
(lp389
I1
aF0.24686167717703833
aF0.6449813912682681
aF0.46421066400720523
aI1
aI1
aI1
aI1
aI1
aI1
aF0.3375983030103071
aI1
aF0.6120820533841898
aI1
aI1
aI1
aI1
asa(dp390
g2
S"SELECT * FROM lineitem WHERE column3 >= 1 AND column3 <= 6 AND column10 >= '1994-02-22' AND column10 <= '1994-05-08' AND column12 >= '1992-07-12' AND column12 <= '1996-08-13' AND column0 >= 5574412 AND column0 <= 5663801 AND column1 >= 108505 AND column1 <= 175699;"
p391
sg4
(lp392
F0.01480150269570412
aF0.33581883002025426
aI1
aF0.9642370753255799
aI1
aI1
aI1
aI1
aI1
aI1
aF0.031723409342941385
aI1
aF0.6204230310028885
aI1
aI1
aI1
aI1
asa(dp393
g2
S"SELECT * FROM lineitem WHERE column1 >= 9986 AND column1 <= 127965 AND column12 >= '1995-06-08' AND column12 <= '1997-05-27' AND column10 >= '1994-05-05' AND column10 <= '1996-02-12' AND column0 >= 1352971 AND column0 <= 3274354 AND column11 >= '1992-04-18' AND column11 <= '1998-04-13';"
p394
sg4
(lp395
F0.3201010128782255
aF0.5898207279692529
aI1
aI1
aI1
aI1
aI1
aI1
aI1
aI1
aF0.27026510464964176
aF0.9088647882137201
aF0.2998382827477436
aI1
aI1
aI1
aI1
asa(dp396
g2
S"SELECT * FROM lineitem WHERE column4 >= 15 AND column4 <= 33 AND column0 >= 1609044 AND column0 <= 5369346 AND column12 >= '1992-11-27' AND column12 <= '1993-08-21' AND column1 >= 13066 AND column1 <= 145504 AND column2 >= 2493 AND column2 <= 8335;"
p397
sg4
(lp398
F0.6267129239662301
aF0.662096925372612
aF0.5841870354586529
aI1
aF0.38028399249152045
aI1
aI1
aI1
aI1
aI1
aI1
aI1
aF0.11088171311975992
aI1
aI1
aI1
aI1
asa(dp399
g2
S"SELECT * FROM lineitem WHERE column1 >= 61899 AND column1 <= 83839 AND column4 >= 5 AND column4 <= 8 AND column2 >= 1408 AND column2 <= 8673 AND column3 >= 5 AND column3 <= 5 AND column12 >= '1994-03-13' AND column12 <= '1998-09-19';"
p400
sg4
(lp401
I1
aF0.10968545536195587
aF0.7265137143061863
aF0.10719279345932449
aF0.0798518300044241
aI1
aI1
aI1
aI1
aI1
aI1
aI1
aF0.6858301194008213
aI1
aI1
aI1
aI1
asa(dp402
g2
S"SELECT * FROM lineitem WHERE column11 >= '1996-02-02' AND column11 <= '1997-03-27' AND column0 >= 1265003 AND column0 <= 3112289 AND column3 >= 3 AND column3 <= 5 AND column12 >= '1994-07-22' AND column12 <= '1998-12-15' AND column2 >= 2154 AND column2 <= 7803;"
p403
sg4
(lp404
F0.3077321842326929
aI1
aF0.5649750925437599
aF0.42852922283237643
aI1
aI1
aI1
aI1
aI1
aI1
aI1
aF0.17488391933966704
aF0.6449049067563818
aI1
aI1
aI1
aI1
asa(dp405
g2
S"SELECT * FROM lineitem WHERE column4 >= 31 AND column4 <= 48 AND column12 >= '1992-06-04' AND column12 <= '1995-07-02' AND column3 >= 4 AND column3 <= 5 AND column1 >= 92434 AND column1 <= 147080 AND column10 >= '1994-11-28' AND column10 <= '1996-02-10';"
p406
sg4
(lp407
I1
aF0.273083533917715
aI1
aF0.24999970839238386
aF0.3603798564124098
aI1
aI1
aI1
aI1
aI1
aF0.18350767302954485
aI1
aF0.46648437024835804
aI1
aI1
aI1
aI1
asa(dp408
g2
S"SELECT * FROM lineitem WHERE column4 >= 4 AND column4 <= 48 AND column1 >= 101206 AND column1 <= 176649 AND column0 >= 2699324 AND column0 <= 5045575 AND column11 >= '1997-01-19' AND column11 <= '1998-09-28' AND column2 >= 3061 AND column2 <= 7942;"
p409
sg4
(lp410
F0.39125543744058494
aF0.37712329919857895
aF0.48816131400058155
aI1
aF0.900123891578622
aI1
aI1
aI1
aI1
aI1
aI1
aF0.2546099414868489
aI1
aI1
aI1
aI1
aI1
asa(dp411
g2
S"SELECT * FROM lineitem WHERE column0 >= 765596 AND column0 <= 5937211 AND column12 >= '1992-10-10' AND column12 <= '1992-12-29' AND column4 >= 31 AND column4 <= 49 AND column3 >= 3 AND column3 <= 5 AND column11 >= '1993-01-15' AND column11 <= '1995-07-13';"
p412
sg4
(lp413
F0.8618521416079911
aI1
aI1
aF0.42852922283237643
aF0.3803131532531329
aI1
aI1
aI1
aI1
aI1
aI1
aF0.37819208276990574
aF0.033474721368922794
aI1
aI1
aI1
aI1
asa(dp414
g2
S"SELECT * FROM lineitem WHERE column10 >= '1992-06-06' AND column10 <= '1995-10-08' AND column3 >= 1 AND column3 <= 1 AND column4 >= 8 AND column4 <= 30 AND column1 >= 21524 AND column1 <= 162999 AND column12 >= '1995-12-16' AND column12 <= '1996-02-17';"
p415
sg4
(lp416
I1
aF0.7073989183856936
aI1
aF0.24994938524948698
aF0.45998085387708987
aI1
aI1
aI1
aI1
aI1
aF0.506716389931039
aI1
aF0.02649963382415061
aI1
aI1
aI1
aI1
asa(dp417
g2
S"SELECT * FROM lineitem WHERE column0 >= 1628592 AND column0 <= 1872139 AND column1 >= 29548 AND column1 <= 78498 AND column11 >= '1992-11-18' AND column11 <= '1995-04-21' AND column12 >= '1993-04-15' AND column12 <= '1998-10-15' AND column4 >= 18 AND column4 <= 41;"
p418
sg4
(lp419
F0.0406804288798185
aF0.2447857642160796
aI1
aI1
aF0.4803852219925465
aI1
aI1
aI1
aI1
aI1
aI1
aF0.3675427392619661
aF0.8303035302018008
aI1
aI1
aI1
aI1
asa(dp420
g2
S"SELECT * FROM lineitem WHERE column4 >= 14 AND column4 <= 24 AND column0 >= 689005 AND column0 <= 4420880 AND column11 >= '1993-05-26' AND column11 <= '1994-05-22' AND column2 >= 3358 AND column2 <= 4672 AND column12 >= '1996-01-07' AND column12 <= '1996-04-08';"
p421
sg4
(lp422
F0.62190056513556
aI1
aF0.1313555671643159
aI1
aF0.22006060439427683
aI1
aI1
aI1
aI1
aI1
aI1
aF0.1503533867725119
aF0.03850936851954146
aI1
aI1
aI1
aI1
asa(dp423
g2
S"SELECT * FROM lineitem WHERE column10 >= '1996-01-05' AND column10 <= '1996-08-11' AND column3 >= 3 AND column3 <= 5 AND column1 >= 27473 AND column1 <= 52281 AND column11 >= '1992-09-12' AND column11 <= '1994-10-06' AND column0 >= 3286862 AND column0 <= 4992020;"
p424
sg4
(lp425
F0.2843839122577678
aF0.12412053225888424
aI1
aF0.42852922283237643
aI1
aI1
aI1
aI1
aI1
aI1
aF0.09117520368791986
aF0.3131739156154212
aI1
aI1
aI1
aI1
aI1
asa(dp426
g2
S"SELECT * FROM lineitem WHERE column11 >= '1996-05-01' AND column11 <= '1997-12-15' AND column12 >= '1992-01-10' AND column12 <= '1993-02-02' AND column2 >= 272 AND column2 <= 9491 AND column4 >= 4 AND column4 <= 9 AND column3 >= 5 AND column3 <= 6;"
p427
sg4
(lp428
I1
aI1
aF0.9219829651162307
aF0.17868998194532273
aF0.11986439412685598
aI1
aI1
aI1
aI1
aI1
aI1
aF0.247511878844534
aF0.13324751737773102
aI1
aI1
aI1
aI1
asa(dp429
g2
S"SELECT * FROM lineitem WHERE column10 >= '1992-06-26' AND column10 <= '1996-03-27' AND column11 >= '1994-07-25' AND column11 <= '1994-09-14' AND column1 >= 23721 AND column1 <= 63407 AND column2 >= 6769 AND column2 <= 8214 AND column4 >= 10 AND column4 <= 25;"
p430
sg4
(lp431
I1
aF0.19851746687962354
aF0.14456189288335777
aI1
aF0.31996654010896125
aI1
aI1
aI1
aI1
aI1
aF0.5694523525652722
aF0.021614789671758134
aI1
aI1
aI1
aI1
aI1
asa(dp432
g2
S'SELECT * FROM lineitem WHERE column1 >= 140966 AND column1 <= 151362 AND column2 >= 860 AND column2 <= 5030 AND column4 >= 4 AND column4 <= 33 AND column3 >= 4 AND column3 <= 4 AND column0 >= 2374859 AND column0 <= 5776833;'
p433
sg4
(lp434
F0.5670316760855927
aF0.05199680398052728
aF0.4170967045839884
aF0.1428069149330594
aF0.5998518633310088
aI1
aI1
aI1
aI1
aI1
aI1
aI1
aI1
aI1
aI1
aI1
aI1
asa(dp435
g2
S"SELECT * FROM lineitem WHERE column3 >= 2 AND column3 <= 3 AND column12 >= '1996-05-22' AND column12 <= '1997-10-14' AND column0 >= 1602855 AND column0 <= 2580586 AND column2 >= 4613 AND column2 <= 9710 AND column4 >= 20 AND column4 <= 44;"
p436
sg4
(lp437
F0.16295783437187303
aI1
aF0.5099299058607298
aF0.3927907931977108
aF0.5004628229450203
aI1
aI1
aI1
aI1
aI1
aI1
aI1
aF0.21299353547573283
aI1
aI1
aI1
aI1
asa(dp438
g2
S"SELECT * FROM lineitem WHERE column3 >= 1 AND column3 <= 3 AND column10 >= '1992-08-03' AND column10 <= '1995-12-27' AND column1 >= 23023 AND column1 <= 182924 AND column4 >= 22 AND column4 <= 25 AND column0 >= 4839392 AND column0 <= 5818975;"
p439
sg4
(lp440
F0.1631656256274771
aF0.7996329076695302
aI1
aF0.6427401784471978
aF0.08016476663475647
aI1
aI1
aI1
aI1
aI1
aF0.5160786607378672
aI1
aI1
aI1
aI1
aI1
aI1
asa(dp441
g2
S"SELECT * FROM lineitem WHERE column1 >= 44283 AND column1 <= 86148 AND column2 >= 1780 AND column2 <= 7036 AND column12 >= '1992-12-19' AND column12 <= '1993-07-03' AND column11 >= '1994-07-13' AND column11 <= '1996-08-01' AND column0 >= 3794469 AND column0 <= 4727021;"
p442
sg4
(lp443
F0.15548568081630137
aF0.2092509600139305
aF0.5256418908504361
aI1
aI1
aI1
aI1
aI1
aI1
aI1
aI1
aF0.31246389272838915
aF0.0815071614664697
aI1
aI1
aI1
aI1
asa(dp444
g2
S"SELECT * FROM lineitem WHERE column3 >= 1 AND column3 <= 2 AND column12 >= '1995-06-24' AND column12 <= '1997-09-05' AND column4 >= 5 AND column4 <= 22 AND column10 >= '1992-07-07' AND column10 <= '1995-11-05' AND column11 >= '1993-02-01' AND column11 <= '1993-05-29';"
p445
sg4
(lp446
I1
aI1
aI1
aF0.46421066400720523
aF0.3597104919587117
aI1
aI1
aI1
aI1
aI1
aF0.5055936172924983
aF0.04887326982952619
aF0.3353130990974328
aI1
aI1
aI1
aI1
asa(dp447
g2
S"SELECT * FROM lineitem WHERE column4 >= 30 AND column4 <= 34 AND column12 >= '1993-04-18' AND column12 <= '1995-10-30' AND column0 >= 629131 AND column0 <= 5779297 AND column11 >= '1993-07-07' AND column11 <= '1996-06-12' AND column3 >= 3 AND column3 <= 5;"
p448
sg4
(lp449
F0.8582145448879935
aI1
aI1
aF0.42852922283237643
aF0.10003924205348418
aI1
aI1
aI1
aI1
aI1
aI1
aF0.4459466957941017
aF0.3852459876874933
aI1
aI1
aI1
aI1
asa(dp450
g2
S"SELECT * FROM lineitem WHERE column4 >= 8 AND column4 <= 14 AND column12 >= '1992-05-21' AND column12 <= '1996-12-17' AND column0 >= 2387006 AND column0 <= 3352305 AND column10 >= '1994-01-30' AND column10 <= '1994-02-11' AND column11 >= '1994-03-23' AND column11 <= '1997-08-15';"
p451
sg4
(lp452
F0.16091141543837373
aI1
aI1
aI1
aF0.13980468955036604
aI1
aI1
aI1
aI1
aI1
aF0.005377744340104462
aF0.5172210960613809
aF0.6944931984606451
aI1
aI1
aI1
aI1
asa(dp453
g2
S"SELECT * FROM lineitem WHERE column0 >= 50937 AND column0 <= 4169182 AND column4 >= 21 AND column4 <= 37 AND column12 >= '1993-12-01' AND column12 <= '1997-11-28' AND column3 >= 4 AND column3 <= 6 AND column11 >= '1994-03-27' AND column11 <= '1997-12-04';"
p454
sg4
(lp455
F0.6862928590293799
aI1
aI1
aF0.3214968968783821
aF0.3403465798175869
aI1
aI1
aI1
aI1
aI1
aI1
aF0.5617610767152985
aF0.6073405135460069
aI1
aI1
aI1
aI1
asa(dp456
g2
S"SELECT * FROM lineitem WHERE column11 >= '1994-11-24' AND column11 <= '1996-03-28' AND column4 >= 25 AND column4 <= 28 AND column2 >= 786 AND column2 <= 6187 AND column10 >= '1994-02-12' AND column10 <= '1997-01-19' AND column1 >= 23049 AND column1 <= 185199;"
p457
sg4
(lp458
I1
aF0.8109471165422335
aF0.5401411214229118
aI1
aF0.0800932811105751
aI1
aI1
aI1
aI1
aI1
aF0.44685601165763933
aF0.20457190752206011
aI1
aI1
aI1
aI1
aI1
asa(dp459
g2
S"SELECT * FROM lineitem WHERE column0 >= 1602565 AND column0 <= 3718634 AND column2 >= 3084 AND column2 <= 3417 AND column3 >= 1 AND column3 <= 6 AND column12 >= '1995-01-14' AND column12 <= '1995-01-24' AND column4 >= 9 AND column4 <= 29;"
p460
sg4
(lp461
F0.35279939145656336
aI1
aF0.03342989711250138
aF0.9642370753255799
aF0.4200182796317079
aI1
aI1
aI1
aI1
aI1
aI1
aI1
aF0.004555910761404149
aI1
aI1
aI1
aI1
asa(dp462
g2
S"SELECT * FROM lineitem WHERE column10 >= '1994-04-20' AND column10 <= '1995-03-01' AND column12 >= '1996-12-12' AND column12 <= '1998-12-20' AND column2 >= 4359 AND column2 <= 6196 AND column4 >= 2 AND column4 <= 23 AND column1 >= 94588 AND column1 <= 173674;"
p463
sg4
(lp464
I1
aF0.3953219473056706
aF0.18383294049621618
aI1
aF0.4396478046528911
aI1
aI1
aI1
aI1
aI1
aF0.1312574203723746
aI1
aF0.2811528998711094
aI1
aI1
aI1
aI1
asa(dp465
g2
S"SELECT * FROM lineitem WHERE column12 >= '1995-11-21' AND column12 <= '1998-02-23' AND column10 >= '1996-03-21' AND column10 <= '1997-07-04' AND column1 >= 18072 AND column1 <= 170146 AND column0 >= 3081509 AND column0 <= 4922155 AND column3 >= 5 AND column3 <= 6;"
p466
sg4
(lp467
F0.30692701394634253
aF0.7603067045589935
aI1
aF0.17868998194532273
aI1
aI1
aI1
aI1
aI1
aI1
aF0.19613461607357843
aI1
aF0.34362691554960123
aI1
aI1
aI1
aI1
asa(dp468
g2
S"SELECT * FROM lineitem WHERE column4 >= 14 AND column4 <= 26 AND column2 >= 4571 AND column2 <= 7063 AND column10 >= '1992-06-22' AND column10 <= '1996-01-31' AND column1 >= 28376 AND column1 <= 60554 AND column11 >= '1995-05-14' AND column11 <= '1998-08-18';"
p469
sg4
(lp470
I1
aF0.16093924313659816
aF0.24941932591983457
aI1
aF0.2601086613294141
aI1
aI1
aI1
aI1
aI1
aF0.5479412085719308
aF0.4967114159382725
aI1
aI1
aI1
aI1
aI1
asa(dp471
g2
S'SELECT * FROM lineitem WHERE column3 >= 1 AND column3 <= 5 AND column1 >= 156457 AND column1 <= 194801 AND column0 >= 2281346 AND column0 <= 3317717 AND column4 >= 43 AND column4 <= 43 AND column2 >= 2116 AND column2 <= 5064;'
p472
sg4
(lp473
F0.1727176913341715
aF0.19197179237870998
aF0.29484462729630584
aF0.8927398868395816
aF0.019976954666679998
aI1
aI1
aI1
aI1
aI1
aI1
aI1
aI1
aI1
aI1
aI1
aI1
asa(dp474
g2
S"SELECT * FROM lineitem WHERE column3 >= 3 AND column3 <= 3 AND column0 >= 3002253 AND column0 <= 4041737 AND column12 >= '1993-05-03' AND column12 <= '1994-11-05' AND column1 >= 152892 AND column1 <= 152934 AND column2 >= 6217 AND column2 <= 7410;"
p475
sg4
(lp476
F0.17332773446710376
aF0.00022462118087753896
aF0.11962027689392898
aF0.17852951443999257
aI1
aI1
aI1
aI1
aI1
aI1
aI1
aI1
aF0.22916309447336913
aI1
aI1
aI1
aI1
asa(dp477
g2
S"SELECT * FROM lineitem WHERE column0 >= 161917 AND column0 <= 1786461 AND column4 >= 33 AND column4 <= 47 AND column11 >= '1992-08-04' AND column11 <= '1997-04-20' AND column10 >= '1993-03-20' AND column10 <= '1993-11-02' AND column12 >= '1992-10-24' AND column12 <= '1998-11-27';"
p478
sg4
(lp479
F0.2705582119620777
aI1
aI1
aI1
aF0.3002613637405092
aI1
aI1
aI1
aI1
aI1
aF0.09454235517307745
aF0.7153398103550698
aF0.9080701158015502
aI1
aI1
aI1
aI1
asa(dp480
g2
S"SELECT * FROM lineitem WHERE column10 >= '1995-01-26' AND column10 <= '1995-04-30' AND column2 >= 717 AND column2 <= 4539 AND column0 >= 526192 AND column0 <= 5303469 AND column4 >= 32 AND column4 <= 33 AND column11 >= '1992-11-18' AND column11 <= '1998-04-29';"
p481
sg4
(lp482
F0.7960419681681127
aI1
aF0.3822222666576685
aI1
aF0.04011804276300716
aI1
aI1
aI1
aI1
aI1
aF0.03979644122065282
aF0.8272019915967017
aI1
aI1
aI1
aI1
aI1
asa(dp483
g2
S"SELECT * FROM lineitem WHERE column12 >= '1992-11-06' AND column12 <= '1996-10-14' AND column1 >= 14732 AND column1 <= 73286 AND column2 >= 963 AND column2 <= 9058 AND column4 >= 33 AND column4 <= 37 AND column3 >= 1 AND column3 <= 1;"
p484
sg4
(lp485
I1
aF0.29274971818206813
aF0.8095160729952184
aF0.24994938524948698
aF0.10019437730526234
aI1
aI1
aI1
aI1
aI1
aI1
aI1
aF0.5979629125102167
aI1
aI1
aI1
aI1
asa(dp486
g2
S"SELECT * FROM lineitem WHERE column10 >= '1995-04-14' AND column10 <= '1998-03-08' AND column2 >= 5816 AND column2 <= 8568 AND column0 >= 2423589 AND column0 <= 3790411 AND column1 >= 53845 AND column1 <= 99524 AND column4 >= 35 AND column4 <= 49;"
p487
sg4
(lp488
F0.2278771882027223
aF0.22854421979549142
aF0.2754662180908366
aI1
aF0.3002150397877763
aI1
aI1
aI1
aI1
aI1
aF0.4413562920175331
aI1
aI1
aI1
aI1
aI1
aI1
asa(dp489
g2
S"SELECT * FROM lineitem WHERE column4 >= 9 AND column4 <= 9 AND column11 >= '1993-05-05' AND column11 <= '1998-07-08' AND column12 >= '1995-11-18' AND column12 <= '1998-08-19' AND column1 >= 58270 AND column1 <= 180866 AND column0 >= 187978 AND column0 <= 1495604;"
p490
sg4
(lp491
F0.2177339088834511
aF0.6130441918844767
aI1
aI1
aF0.020079767180479286
aI1
aI1
aI1
aI1
aI1
aI1
aF0.7868278340302756
aF0.41844293197294213
aI1
aI1
aI1
aI1
asa(dp492
g2
S"SELECT * FROM lineitem WHERE column10 >= '1992-04-13' AND column10 <= '1995-02-19' AND column11 >= '1994-08-28' AND column11 <= '1998-09-11' AND column0 >= 1795800 AND column0 <= 2713723 AND column4 >= 46 AND column4 <= 49 AND column2 >= 4571 AND column2 <= 6167;"
p493
sg4
(lp494
F0.15290820275560865
aI1
aF0.1597168240098047
aI1
aF0.07999113512846982
aI1
aI1
aI1
aI1
aI1
aF0.4317270752672584
aF0.614130471912771
aI1
aI1
aI1
aI1
aI1
asa(dp495
g2
S"SELECT * FROM lineitem WHERE column1 >= 71344 AND column1 <= 92448 AND column4 >= 12 AND column4 <= 33 AND column3 >= 2 AND column3 <= 5 AND column11 >= '1995-10-05' AND column11 <= '1996-06-13' AND column0 >= 661329 AND column0 <= 5039135;"
p496
sg4
(lp497
F0.729599089517706
aF0.10556678939181482
aI1
aF0.6427905015900947
aF0.4401202089910127
aI1
aI1
aI1
aI1
aI1
aI1
aF0.10498374079248952
aI1
aI1
aI1
aI1
aI1
asa(dp498
g2
S"SELECT * FROM lineitem WHERE column2 >= 1865 AND column2 <= 5825 AND column3 >= 1 AND column3 <= 4 AND column1 >= 99484 AND column1 <= 100767 AND column0 >= 1244588 AND column0 <= 5749588 AND column10 >= '1992-02-27' AND column10 <= '1992-03-08';"
p499
sg4
(lp500
F0.7507346429014791
aF0.006418033681512827
aF0.39591815990595236
aF0.7855470933802572
aI1
aI1
aI1
aI1
aI1
aI1
aF0.002339192980088199
aI1
aI1
aI1
aI1
aI1
aI1
asa(dp501
g2
S"SELECT * FROM lineitem WHERE column0 >= 1774288 AND column0 <= 2558300 AND column10 >= '1994-08-09' AND column10 <= '1996-06-24' AND column3 >= 4 AND column3 <= 6 AND column4 >= 32 AND column4 <= 34 AND column2 >= 5595 AND column2 <= 8206;"
p502
sg4
(lp503
F0.13068470301430626
aI1
aF0.2612762582243762
aF0.3214968968783821
aF0.060108328063567126
aI1
aI1
aI1
aI1
aI1
aF0.28553451259453294
aI1
aI1
aI1
aI1
aI1
aI1
asa(dp504
g2
S"SELECT * FROM lineitem WHERE column2 >= 824 AND column2 <= 7190 AND column1 >= 111981 AND column1 <= 161385 AND column3 >= 1 AND column3 <= 6 AND column0 >= 3005709 AND column0 <= 3261336 AND column10 >= '1992-04-25' AND column10 <= '1992-07-30';"
p505
sg4
(lp506
F0.04262736795798851
aF0.24687800720354128
aF0.6367253964405541
aF0.9642370753255799
aI1
aI1
aI1
aI1
aI1
aI1
aF0.039900253531993106
aI1
aI1
aI1
aI1
aI1
aI1
asa(dp507
g2
S"SELECT * FROM lineitem WHERE column11 >= '1993-02-23' AND column11 <= '1994-01-13' AND column3 >= 3 AND column3 <= 6 AND column12 >= '1992-03-07' AND column12 <= '1998-03-10' AND column10 >= '1994-08-31' AND column10 <= '1998-10-24' AND column4 >= 7 AND column4 <= 45;"
p508
sg4
(lp509
I1
aI1
aI1
aF0.5000264113183747
aF0.7803178189749909
aI1
aI1
aI1
aI1
aI1
aF0.619495052251919
aF0.13483103004974825
aF0.9033853977902808
aI1
aI1
aI1
aI1
asa(dp510
g2
S"SELECT * FROM lineitem WHERE column10 >= '1992-04-25' AND column10 <= '1994-12-13' AND column11 >= '1993-06-19' AND column11 <= '1996-05-19' AND column3 >= 6 AND column3 <= 6 AND column0 >= 4316187 AND column0 <= 4847876 AND column2 >= 569 AND column2 <= 2920;"
p511
sg4
(lp512
F0.08858989387982268
aI1
aF0.23535500727769293
aF0.07149718848599826
aI1
aI1
aI1
aI1
aI1
aI1
aF0.39902902995476747
aF0.44338938031715247
aI1
aI1
aI1
aI1
aI1
asa(dp513
g2
S"SELECT * FROM lineitem WHERE column1 >= 96174 AND column1 <= 191791 AND column10 >= '1992-07-06' AND column10 <= '1996-11-13' AND column0 >= 2272301 AND column0 <= 4105864 AND column3 >= 1 AND column3 <= 2 AND column12 >= '1995-10-25' AND column12 <= '1997-02-08';"
p514
sg4
(lp515
F0.3056337758270617
aF0.4781928326180615
aI1
aF0.46421066400720523
aI1
aI1
aI1
aI1
aI1
aI1
aF0.6614280608176845
aI1
aF0.19680914614790504
aI1
aI1
aI1
aI1
asa(dp516
g2
S"SELECT * FROM lineitem WHERE column4 >= 23 AND column4 <= 44 AND column12 >= '1994-03-11' AND column12 <= '1998-02-18' AND column1 >= 13718 AND column1 <= 97771 AND column2 >= 635 AND column2 <= 2022 AND column0 >= 1782669 AND column0 <= 4517083;"
p517
sg4
(lp518
F0.4557388795435591
aF0.42029572344933486
aF0.1390118501003547
aI1
aF0.4404871346885589
aI1
aI1
aI1
aI1
aI1
aI1
aI1
aF0.5999446778693981
aI1
aI1
aI1
aI1
asa(dp519
g2
S"SELECT * FROM lineitem WHERE column2 >= 6208 AND column2 <= 8123 AND column11 >= '1992-05-02' AND column11 <= '1995-04-11' AND column4 >= 21 AND column4 <= 23 AND column3 >= 3 AND column3 <= 6 AND column10 >= '1993-03-05' AND column10 <= '1994-03-23';"
p520
sg4
(lp521
I1
aI1
aF0.19177449899728638
aF0.5000264113183747
aF0.060055505426817736
aI1
aI1
aI1
aI1
aI1
aF0.15930057496690253
aF0.4458458828753844
aI1
aI1
aI1
aI1
aI1
asa(dp522
g2
S"SELECT * FROM lineitem WHERE column4 >= 16 AND column4 <= 20 AND column10 >= '1993-03-15' AND column10 <= '1998-03-15' AND column1 >= 139344 AND column1 <= 178039 AND column2 >= 8556 AND column2 <= 8989 AND column12 >= '1993-07-24' AND column12 <= '1998-05-28';"
p523
sg4
(lp524
I1
aF0.19351281365523482
aF0.04334922178258903
aI1
aF0.10006473689077962
aI1
aI1
aI1
aI1
aI1
aF0.7599779378009286
aI1
aF0.736654827397452
aI1
aI1
aI1
aI1
asa(dp525
g2
S"SELECT * FROM lineitem WHERE column12 >= '1993-09-25' AND column12 <= '1995-07-09' AND column10 >= '1994-07-27' AND column10 <= '1995-10-21' AND column4 >= 28 AND column4 <= 41 AND column11 >= '1992-07-10' AND column11 <= '1997-12-06' AND column3 >= 1 AND column3 <= 3;"
p526
sg4
(lp527
I1
aI1
aI1
aF0.6427401784471978
aF0.28032023515238164
aI1
aI1
aI1
aI1
aI1
aF0.18842701019710176
aF0.8215018125496254
aF0.2717629679989802
aI1
aI1
aI1
aI1
asa(dp528
g2
S"SELECT * FROM lineitem WHERE column10 >= '1995-01-06' AND column10 <= '1998-09-16' AND column2 >= 4176 AND column2 <= 7703 AND column12 >= '1993-04-17' AND column12 <= '1998-04-28' AND column11 >= '1997-07-11' AND column11 <= '1998-07-22' AND column1 >= 121526 AND column1 <= 165831;"
p529
sg4
(lp530
I1
aF0.2214898149791334
aF0.3528753760696792
aI1
aI1
aI1
aI1
aI1
aI1
aI1
aF0.5588746612144374
aF0.1567852509866752
aF0.7645855047686176
aI1
aI1
aI1
aI1
asa(dp531
g2
S"SELECT * FROM lineitem WHERE column11 >= '1992-02-26' AND column11 <= '1994-04-16' AND column4 >= 40 AND column4 <= 47 AND column1 >= 11078 AND column1 <= 191951 AND column0 >= 4022414 AND column0 <= 4856304 AND column3 >= 2 AND column3 <= 5;"
p532
sg4
(lp533
F0.13898468893382424
aF0.9044751771099686
aI1
aF0.6427905015900947
aF0.16006308722483698
aI1
aI1
aI1
aI1
aI1
aI1
aF0.3194721402249378
aI1
aI1
aI1
aI1
aI1
asa(dp534
g2
S"SELECT * FROM lineitem WHERE column12 >= '1993-03-13' AND column12 <= '1997-07-08' AND column3 >= 4 AND column3 <= 4 AND column10 >= '1992-02-17' AND column10 <= '1994-05-18' AND column2 >= 5580 AND column2 <= 9717 AND column11 >= '1993-07-17' AND column11 <= '1997-12-22';"
p535
sg4
(lp536
I1
aI1
aF0.41389985194664747
aF0.1428069149330594
aI1
aI1
aI1
aI1
aI1
aI1
aF0.3311029516522904
aF0.6743849370502474
aF0.6569273055539586
aI1
aI1
aI1
aI1
asa(dp537
g2
S"SELECT * FROM lineitem WHERE column12 >= '1995-11-01' AND column12 <= '1998-07-30' AND column0 >= 703774 AND column0 <= 1235895 AND column11 >= '1992-09-14' AND column11 <= '1996-05-09' AND column4 >= 18 AND column4 <= 44 AND column2 >= 6135 AND column2 <= 8661;"
p538
sg4
(lp539
F0.08858772765181717
aI1
aF0.25288562399447445
aI1
aF0.5404200649368502
aI1
aI1
aI1
aI1
aI1
aI1
aF0.5542584293347264
aF0.41721984631445463
aI1
aI1
aI1
aI1
asa(dp540
g2
S"SELECT * FROM lineitem WHERE column2 >= 5587 AND column2 <= 6501 AND column10 >= '1992-01-26' AND column10 <= '1993-02-19' AND column12 >= '1996-07-04' AND column12 <= '1998-11-07' AND column1 >= 111444 AND column1 <= 191117 AND column4 >= 2 AND column4 <= 13;"
p541
sg4
(lp542
I1
aF0.3984734757878196
aF0.091598118047762
aI1
aF0.23957831872379176
aI1
aI1
aI1
aI1
aI1
aF0.14573598846233637
aI1
aF0.34546071087271496
aI1
aI1
aI1
aI1
asa(dp543
g2
S"SELECT * FROM lineitem WHERE column1 >= 7668 AND column1 <= 94384 AND column12 >= '1995-05-12' AND column12 <= '1997-07-05' AND column11 >= '1995-04-22' AND column11 <= '1996-07-08' AND column0 >= 453142 AND column0 <= 4453381 AND column2 >= 3274 AND column2 <= 7742;"
p544
sg4
(lp545
F0.6666911617064211
aF0.43364068776072845
aF0.44685667818933333
aI1
aI1
aI1
aI1
aI1
aI1
aI1
aI1
aF0.1846491085555175
aF0.32738720409117156
aI1
aI1
aI1
aI1
asa(dp546
g2
S"SELECT * FROM lineitem WHERE column10 >= '1994-10-14' AND column10 <= '1998-01-29' AND column2 >= 1497 AND column2 <= 9505 AND column3 >= 5 AND column3 <= 6 AND column11 >= '1992-04-12' AND column11 <= '1993-07-27' AND column0 >= 3433500 AND column0 <= 5054788;"
p547
sg4
(lp548
F0.27029143265155475
aI1
aF0.8007980050706398
aF0.17868998194532273
aI1
aI1
aI1
aI1
aI1
aI1
aF0.501355808782055
aF0.1950281734615407
aI1
aI1
aI1
aI1
aI1
asa(dp549
g2
S"SELECT * FROM lineitem WHERE column3 >= 1 AND column3 <= 5 AND column11 >= '1993-11-07' AND column11 <= '1998-10-25' AND column0 >= 931101 AND column0 <= 1302936 AND column1 >= 107665 AND column1 <= 122330 AND column12 >= '1994-09-23' AND column12 <= '1995-01-07';"
p550
sg4
(lp551
F0.06188630135730848
aF0.07318501336812629
aI1
aF0.8927398868395816
aI1
aI1
aI1
aI1
aI1
aI1
aI1
aF0.7449303182772156
aF0.04438084621197541
aI1
aI1
aI1
aI1
asa(dp552
g2
S"SELECT * FROM lineitem WHERE column10 >= '1994-05-11' AND column10 <= '1997-03-28' AND column12 >= '1994-01-02' AND column12 <= '1994-12-09' AND column11 >= '1995-02-24' AND column11 <= '1998-05-29' AND column3 >= 1 AND column3 <= 2 AND column2 >= 749 AND column2 <= 4628;"
p553
sg4
(lp554
I1
aI1
aF0.3879812671267402
aF0.46421066400720523
aI1
aI1
aI1
aI1
aI1
aI1
aF0.438478874694541
aF0.496229013624741
aF0.14208189508291239
aI1
aI1
aI1
aI1
asa(dp555
g2
S"SELECT * FROM lineitem WHERE column4 >= 34 AND column4 <= 35 AND column0 >= 3162812 AND column0 <= 4500201 AND column12 >= '1996-06-28' AND column12 <= '1996-10-27' AND column10 >= '1992-05-19' AND column10 <= '1993-11-06' AND column2 >= 1175 AND column2 <= 7063;"
p556
sg4
(lp557
F0.22303500207874571
aI1
aF0.5886861243931437
aI1
aF0.04011171071191417
aI1
aI1
aI1
aI1
aI1
aF0.22224866131275084
aI1
aF0.05081254379321521
aI1
aI1
aI1
aI1
asa(dp558
g2
S"SELECT * FROM lineitem WHERE column3 >= 3 AND column3 <= 4 AND column0 >= 1014881 AND column0 <= 1836930 AND column4 >= 21 AND column4 <= 32 AND column11 >= '1993-11-12' AND column11 <= '1996-07-17' AND column10 >= '1994-03-25' AND column10 <= '1994-12-19';"
p559
sg4
(lp560
F0.13697309628133636
aI1
aI1
aF0.32133642937305196
aF0.24015220251232458
aI1
aI1
aI1
aI1
aI1
aF0.11219678015201921
aF0.40722387049955716
aI1
aI1
aI1
aI1
aI1
asa(dp561
g2
S"SELECT * FROM lineitem WHERE column10 >= '1995-07-02' AND column10 <= '1998-03-27' AND column1 >= 76306 AND column1 <= 149324 AND column0 >= 2752533 AND column0 <= 5083972 AND column3 >= 2 AND column3 <= 4 AND column4 >= 11 AND column4 <= 46;"
p562
sg4
(lp563
F0.3886509648462853
aF0.3650124183186238
aI1
aF0.5355977081307702
aF0.7202814763343757
aI1
aI1
aI1
aI1
aI1
aF0.4161830562644398
aI1
aI1
aI1
aI1
aI1
aI1
asa(dp564
g2
S"SELECT * FROM lineitem WHERE column0 >= 2057946 AND column0 <= 3623363 AND column12 >= '1995-09-30' AND column12 <= '1997-12-05' AND column3 >= 6 AND column3 <= 6 AND column10 >= '1995-02-11' AND column10 <= '1997-01-17' AND column4 >= 14 AND column4 <= 41;"
p565
sg4
(lp566
F0.26093732685797794
aI1
aI1
aF0.07149718848599826
aF0.5604270135297602
aI1
aI1
aI1
aI1
aI1
aF0.29473581599726056
aI1
aF0.3321795669710217
aI1
aI1
aI1
aI1
asa(dp567
g2
S"SELECT * FROM lineitem WHERE column3 >= 5 AND column3 <= 5 AND column0 >= 4476189 AND column0 <= 5060140 AND column4 >= 8 AND column4 <= 25 AND column2 >= 344 AND column2 <= 9192 AND column12 >= '1993-06-14' AND column12 <= '1996-10-23';"
p568
sg4
(lp569
F0.09737061578363715
aI1
aF0.8848094927443859
aF0.10719279345932449
aF0.36006775294669496
aI1
aI1
aI1
aI1
aI1
aI1
aI1
aF0.5107404084006322
aI1
aI1
aI1
aI1
asa(dp570
g2
S"SELECT * FROM lineitem WHERE column2 >= 4163 AND column2 <= 4741 AND column10 >= '1993-03-16' AND column10 <= '1993-08-18' AND column12 >= '1993-11-10' AND column12 <= '1994-08-02' AND column1 >= 53510 AND column1 <= 167688 AND column4 >= 19 AND column4 <= 39;"
p571
sg4
(lp572
I1
aF0.5708319065389259
aF0.05785361797569326
aI1
aF0.4204218645724241
aI1
aI1
aI1
aI1
aI1
aF0.06458725441431444
aI1
aF0.11060060337781599
aI1
aI1
aI1
aI1
asa(dp573
g2
S"SELECT * FROM lineitem WHERE column3 >= 1 AND column3 <= 6 AND column1 >= 107526 AND column1 <= 156977 AND column4 >= 14 AND column4 <= 17 AND column12 >= '1993-10-17' AND column12 <= '1994-04-06' AND column0 >= 1124005 AND column0 <= 1942679;"
p574
sg4
(lp575
F0.1365165220709473
aF0.24707413415450039
aI1
aF0.9642370753255799
aF0.08004179153721372
aI1
aI1
aI1
aI1
aI1
aI1
aI1
aF0.07145986271113433
aI1
aI1
aI1
aI1
asa(dp576
g2
S"SELECT * FROM lineitem WHERE column2 >= 1959 AND column2 <= 2943 AND column12 >= '1992-02-18' AND column12 <= '1995-04-10' AND column10 >= '1995-09-23' AND column10 <= '1998-01-08' AND column11 >= '1995-01-29' AND column11 <= '1997-10-31' AND column0 >= 3930426 AND column0 <= 4045117;"
p577
sg4
(lp578
F0.01907330432254135
aI1
aF0.09840157368132953
aI1
aI1
aI1
aI1
aI1
aI1
aI1
aF0.3491362998992704
aF0.41976899677815244
aF0.4623310446301291
aI1
aI1
aI1
aI1
asa(dp579
g2
S"SELECT * FROM lineitem WHERE column10 >= '1995-05-09' AND column10 <= '1998-04-18' AND column1 >= 104164 AND column1 <= 132164 AND column0 >= 2541937 AND column0 <= 3205362 AND column2 >= 2221 AND column2 <= 5970 AND column3 >= 5 AND column3 <= 6;"
p580
sg4
(lp581
F0.11048762625568323
aF0.13979452494203257
aF0.3747621106725888
aF0.17868998194532273
aI1
aI1
aI1
aI1
aI1
aI1
aF0.4479249618618896
aI1
aI1
aI1
aI1
aI1
aI1
asa(dp582
g2
S"SELECT * FROM lineitem WHERE column1 >= 32746 AND column1 <= 183426 AND column12 >= '1995-10-09' AND column12 <= '1996-10-25' AND column0 >= 2415256 AND column0 <= 3432583 AND column4 >= 34 AND column4 <= 42 AND column2 >= 7760 AND column2 <= 8977;"
p583
sg4
(lp584
F0.16957232827019195
aF0.7535297435602624
aF0.12178500520311304
aI1
aF0.18030165558141142
aI1
aI1
aI1
aI1
aI1
aI1
aI1
aF0.15914560634804786
aI1
aI1
aI1
aI1
asa(dp585
g2
S"SELECT * FROM lineitem WHERE column12 >= '1995-09-08' AND column12 <= '1998-02-05' AND column10 >= '1995-11-22' AND column10 <= '1996-09-03' AND column11 >= '1994-07-10' AND column11 <= '1998-07-03' AND column4 >= 2 AND column4 <= 14 AND column1 >= 33937 AND column1 <= 155565;"
p586
sg4
(lp587
I1
aF0.608006878607082
aI1
aI1
aF0.25947762244812095
aI1
aI1
aI1
aI1
aI1
aF0.11898407239200728
aF0.6058183217898375
aF0.36723780101196174
aI1
aI1
aI1
aI1
asa(dp588
g2
S"SELECT * FROM lineitem WHERE column12 >= '1993-07-12' AND column12 <= '1993-07-23' AND column0 >= 4034925 AND column0 <= 5440076 AND column1 >= 90354 AND column1 <= 96157 AND column3 >= 1 AND column3 <= 4 AND column11 >= '1993-03-19' AND column11 <= '1998-07-11';"
p589
sg4
(lp590
F0.2341905764082773
aF0.02905261684508887
aI1
aF0.7855470933802572
aI1
aI1
aI1
aI1
aI1
aI1
aI1
aF0.8076059597931419
aF0.004978991754169781
aI1
aI1
aI1
aI1
asa(dp591
g2
S"SELECT * FROM lineitem WHERE column11 >= '1997-02-04' AND column11 <= '1997-09-21' AND column2 >= 6490 AND column2 <= 9929 AND column3 >= 5 AND column3 <= 6 AND column12 >= '1994-03-05' AND column12 <= '1994-10-28' AND column0 >= 35425 AND column0 <= 773643;"
p592
sg4
(lp593
F0.12310573775477132
aI1
aF0.3439505166870375
aF0.17868998194532273
aI1
aI1
aI1
aI1
aI1
aI1
aI1
aF0.09582959450711231
aF0.09904177737341521
aI1
aI1
aI1
aI1
asa(dp594
g2
S"SELECT * FROM lineitem WHERE column11 >= '1995-01-10' AND column11 <= '1998-04-13' AND column1 >= 66028 AND column1 <= 166504 AND column10 >= '1993-01-03' AND column10 <= '1995-05-24' AND column2 >= 2416 AND column2 <= 9744 AND column12 >= '1997-05-17' AND column12 <= '1998-07-29';"
p595
sg4
(lp596
I1
aF0.502315281155566
aF0.7328212703594189
aI1
aI1
aI1
aI1
aI1
aI1
aI1
aF0.36235612288511576
aF0.4958212628609373
aF0.18259135858322023
aI1
aI1
aI1
aI1
asa(dp597
g2
S"SELECT * FROM lineitem WHERE column12 >= '1993-03-09' AND column12 <= '1993-11-23' AND column3 >= 3 AND column3 <= 5 AND column11 >= '1993-07-31' AND column11 <= '1993-09-08' AND column0 >= 1177946 AND column0 <= 1182855 AND column4 >= 17 AND column4 <= 29;"
p598
sg4
(lp599
F0.000852160770777251
aI1
aI1
aF0.42852922283237643
aF0.26010282917709165
aI1
aI1
aI1
aI1
aI1
aI1
aF0.01665762683056681
aF0.10785899188747612
aI1
aI1
aI1
aI1
asa(dp600
g2
S"SELECT * FROM lineitem WHERE column12 >= '1995-04-04' AND column12 <= '1995-12-23' AND column10 >= '1997-03-13' AND column10 <= '1998-03-24' AND column3 >= 5 AND column3 <= 6 AND column2 >= 6429 AND column2 <= 7643 AND column1 >= 22931 AND column1 <= 130144;"
p601
sg4
(lp602
I1
aF0.5360204558576889
aF0.12152405804491258
aF0.17868998194532273
aI1
aI1
aI1
aI1
aI1
aI1
aF0.1567289290585323
aI1
aF0.11049362504092922
aI1
aI1
aI1
aI1
asa(dp603
g2
S"SELECT * FROM lineitem WHERE column3 >= 1 AND column3 <= 6 AND column4 >= 6 AND column4 <= 39 AND column0 >= 2592436 AND column0 <= 4573429 AND column2 >= 740 AND column2 <= 5557 AND column12 >= '1993-05-11' AND column12 <= '1997-03-10';"
p604
sg4
(lp605
F0.33020629989093875
aI1
aF0.48173811469844025
aF0.9642370753255799
aF0.6801860956489644
aI1
aI1
aI1
aI1
aI1
aI1
aI1
aF0.582449220699475
aI1
aI1
aI1
aI1
asa(dp606
g2
S"SELECT * FROM lineitem WHERE column12 >= '1996-01-09' AND column12 <= '1996-09-19' AND column2 >= 3214 AND column2 <= 4168 AND column3 >= 6 AND column3 <= 6 AND column0 >= 1465211 AND column0 <= 1807824 AND column11 >= '1995-12-11' AND column11 <= '1998-01-24';"
p607
sg4
(lp608
F0.05707794171680235
aI1
aF0.09537368682841725
aF0.07149718848599826
aI1
aI1
aI1
aI1
aI1
aI1
aI1
aF0.3229407711605067
aF0.10567976651394759
aI1
aI1
aI1
aI1
asa(dp609
g2
S"SELECT * FROM lineitem WHERE column11 >= '1995-11-27' AND column11 <= '1998-08-24' AND column1 >= 3649 AND column1 <= 53350 AND column10 >= '1992-12-29' AND column10 <= '1993-09-02' AND column12 >= '1997-03-14' AND column12 <= '1998-06-25' AND column4 >= 15 AND column4 <= 44;"
p610
sg4
(lp611
I1
aF0.24843435870902808
aI1
aI1
aF0.6005625527497348
aI1
aI1
aI1
aI1
aI1
aF0.10267304204231976
aF0.41697822857538014
aF0.1950906608078531
aI1
aI1
aI1
aI1
asa(dp612
g2
S"SELECT * FROM lineitem WHERE column12 >= '1996-04-18' AND column12 <= '1996-05-01' AND column4 >= 14 AND column4 <= 24 AND column1 >= 75523 AND column1 <= 125630 AND column2 >= 4840 AND column2 <= 8717 AND column10 >= '1995-10-31' AND column10 <= '1997-03-18';"
p613
sg4
(lp614
I1
aF0.2504562826027729
aF0.3879860994815217
aI1
aF0.22006060439427683
aI1
aI1
aI1
aI1
aI1
aF0.21014194625588317
aI1
aF0.005790327458689615
aI1
aI1
aI1
aI1
asa(dp615
g2
S"SELECT * FROM lineitem WHERE column12 >= '1993-01-17' AND column12 <= '1993-04-07' AND column2 >= 1138 AND column2 <= 8635 AND column3 >= 3 AND column3 <= 6 AND column10 >= '1992-06-09' AND column10 <= '1992-09-06' AND column4 >= 32 AND column4 <= 46;"
p616
sg4
(lp617
I1
aI1
aF0.7496695252544693
aF0.5000264113183747
aF0.300358010836139
aI1
aI1
aI1
aI1
aI1
aF0.037161308168429226
aI1
aF0.03360186228955303
aI1
aI1
aI1
aI1
asa(dp618
g2
S"SELECT * FROM lineitem WHERE column12 >= '1994-11-21' AND column12 <= '1995-02-22' AND column2 >= 77 AND column2 <= 6028 AND column3 >= 1 AND column3 <= 6 AND column11 >= '1993-03-20' AND column11 <= '1995-12-25' AND column10 >= '1995-04-12' AND column10 <= '1997-09-16';"
p619
sg4
(lp620
I1
aI1
aF0.5951003255174161
aF0.9642370753255799
aI1
aI1
aI1
aI1
aI1
aI1
aF0.3704771450447951
aF0.42060249466149774
aF0.0389759407053405
aI1
aI1
aI1
aI1
asa(dp621
g2
S"SELECT * FROM lineitem WHERE column3 >= 2 AND column3 <= 3 AND column4 >= 17 AND column4 <= 47 AND column10 >= '1996-02-15' AND column10 <= '1996-11-29' AND column0 >= 2897981 AND column0 <= 3931480 AND column11 >= '1995-02-22' AND column11 <= '1998-08-18';"
p622
sg4
(lp623
F0.1723815927274727
aI1
aI1
aF0.3927907931977108
aF0.6203960364692817
aI1
aI1
aI1
aI1
aI1
aF0.1201924943532268
aF0.5307331931950446
aI1
aI1
aI1
aI1
aI1
asa(dp624
g2
S"SELECT * FROM lineitem WHERE column11 >= '1995-12-13' AND column11 <= '1997-12-13' AND column10 >= '1993-12-18' AND column10 <= '1998-05-14' AND column0 >= 1593363 AND column0 <= 3188238 AND column3 >= 5 AND column3 <= 6 AND column4 >= 5 AND column4 <= 6;"
p625
sg4
(lp626
F0.26579717607184544
aI1
aI1
aF0.17868998194532273
aF0.03981543737393178
aI1
aI1
aI1
aI1
aI1
aF0.6696418975157531
aF0.3047509545983605
aI1
aI1
aI1
aI1
aI1
asa(dp627
g2
S"SELECT * FROM lineitem WHERE column3 >= 1 AND column3 <= 5 AND column1 >= 34785 AND column1 <= 191490 AND column0 >= 3583929 AND column0 <= 4011044 AND column2 >= 593 AND column2 <= 1147 AND column12 >= '1995-02-19' AND column12 <= '1997-10-19';"
p628
sg4
(lp629
F0.07104877928886068
aF0.7836268155698471
aF0.055826695094243414
aF0.8927398868395816
aI1
aI1
aI1
aI1
aI1
aI1
aI1
aI1
aF0.4059537943566428
aI1
aI1
aI1
aI1
asa(dp630
g2
S"SELECT * FROM lineitem WHERE column11 >= '1993-07-20' AND column11 <= '1994-01-11' AND column1 >= 11677 AND column1 <= 28483 AND column2 >= 2055 AND column2 <= 8653 AND column10 >= '1997-01-27' AND column10 <= '1998-04-14' AND column0 >= 522272 AND column0 <= 774897;"
p631
sg4
(lp632
F0.04209980812218859
aF0.08393900235202371
aF0.6598883726045476
aI1
aI1
aI1
aI1
aI1
aI1
aI1
aF0.18421069733378992
aF0.07318901255829027
aI1
aI1
aI1
aI1
aI1
asa(dp633
g2
S"SELECT * FROM lineitem WHERE column1 >= 95775 AND column1 <= 117071 AND column10 >= '1994-06-17' AND column10 <= '1994-07-17' AND column0 >= 704441 AND column0 <= 2587474 AND column4 >= 16 AND column4 <= 45 AND column3 >= 5 AND column3 <= 6;"
p634
sg4
(lp635
F0.3136783134748547
aF0.1064541097094505
aI1
aF0.17868998194532273
aF0.600448242564214
aI1
aI1
aI1
aI1
aI1
aF0.012960375523956399
aI1
aI1
aI1
aI1
aI1
aI1
asa(dp636
g2
S"SELECT * FROM lineitem WHERE column0 >= 146832 AND column0 <= 2571015 AND column4 >= 6 AND column4 <= 30 AND column12 >= '1992-04-09' AND column12 <= '1996-10-02' AND column2 >= 863 AND column2 <= 5812 AND column3 >= 2 AND column3 <= 5;"
p637
sg4
(lp638
F0.40388238048461855
aI1
aF0.49492961008729064
aF0.6427905015900947
aF0.499897104169739
aI1
aI1
aI1
aI1
aI1
aI1
aI1
aF0.6774714786922315
aI1
aI1
aI1
aI1
asa(dp639
g2
S"SELECT * FROM lineitem WHERE column10 >= '1992-04-05' AND column10 <= '1995-03-22' AND column4 >= 3 AND column4 <= 31 AND column1 >= 102090 AND column1 <= 128314 AND column2 >= 5580 AND column2 <= 6759 AND column11 >= '1994-01-08' AND column11 <= '1995-09-17';"
p640
sg4
(lp641
I1
aF0.1310069710883546
aF0.1181504078757385
aI1
aF0.579737603135365
aI1
aI1
aI1
aI1
aI1
aF0.4474029009125652
aF0.2572908985930349
aI1
aI1
aI1
aI1
aI1
asa(dp642
g2
S"SELECT * FROM lineitem WHERE column1 >= 95922 AND column1 <= 196191 AND column4 >= 7 AND column4 <= 13 AND column10 >= '1996-07-01' AND column10 <= '1996-08-13' AND column0 >= 2925994 AND column0 <= 5443591 AND column2 >= 2877 AND column2 <= 3314;"
p643
sg4
(lp644
F0.4196730162142166
aF0.5014089646846513
aF0.043730644544479745
aI1
aF0.13992033279927482
aI1
aI1
aI1
aI1
aI1
aF0.018225309374851593
aI1
aI1
aI1
aI1
aI1
aI1
asa(dp645
g2
S"SELECT * FROM lineitem WHERE column10 >= '1994-01-25' AND column10 <= '1994-09-07' AND column11 >= '1992-04-16' AND column11 <= '1995-11-16' AND column1 >= 161890 AND column1 <= 167643 AND column2 >= 2052 AND column2 <= 7433 AND column3 >= 4 AND column3 <= 6;"
p646
sg4
(lp647
I1
aF0.02878517100287192
aF0.5381736864951514
aF0.3214968968783821
aI1
aI1
aI1
aI1
aI1
aI1
aF0.09399279979137558
aF0.5439688463086225
aI1
aI1
aI1
aI1
aI1
asa(dp648
g2
S"SELECT * FROM lineitem WHERE column11 >= '1993-11-03' AND column11 <= '1996-08-13' AND column4 >= 6 AND column4 <= 21 AND column3 >= 1 AND column3 <= 4 AND column12 >= '1993-02-15' AND column12 <= '1995-07-18' AND column2 >= 1909 AND column2 <= 7251;"
p649
sg4
(lp650
I1
aI1
aF0.5342354839811605
aF0.7855470933802572
aF0.31981923660458755
aI1
aI1
aI1
aI1
aI1
aI1
aF0.4222403296665759
aF0.3675089127784957
aI1
aI1
aI1
aI1
asa(dp651
g2
S"SELECT * FROM lineitem WHERE column11 >= '1994-07-14' AND column11 <= '1997-08-27' AND column12 >= '1992-12-15' AND column12 <= '1995-02-22' AND column4 >= 27 AND column4 <= 39 AND column2 >= 2199 AND column2 <= 7388 AND column10 >= '1992-09-17' AND column10 <= '1997-02-16';"
p652
sg4
(lp653
I1
aI1
aF0.5189877383163243
aI1
aF0.2602557982008643
aI1
aI1
aI1
aI1
aI1
aF0.6710624431885877
aF0.4753042508891949
aF0.3319514464987507
aI1
aI1
aI1
aI1
asa(dp654
g2
S"SELECT * FROM lineitem WHERE column2 >= 2829 AND column2 <= 6107 AND column10 >= '1997-11-14' AND column10 <= '1998-09-03' AND column12 >= '1992-01-25' AND column12 <= '1997-10-17' AND column4 >= 12 AND column4 <= 35 AND column11 >= '1993-03-13' AND column11 <= '1996-05-04';"
p655
sg4
(lp656
I1
aI1
aF0.3277064727725969
aI1
aF0.48023191970292683
aI1
aI1
aI1
aI1
aI1
aF0.12056341924093704
aF0.4777620865108149
aF0.8478369796782819
aI1
aI1
aI1
aI1
asa(dp657
g2
S"SELECT * FROM lineitem WHERE column1 >= 41346 AND column1 <= 109142 AND column3 >= 1 AND column3 <= 3 AND column10 >= '1993-02-19' AND column10 <= '1997-10-31' AND column4 >= 10 AND column4 <= 49 AND column0 >= 209977 AND column0 <= 3878698;"
p658
sg4
(lp659
F0.6113658650789882
aF0.33902218134161166
aI1
aF0.6427401784471978
aF0.8001927942924891
aI1
aI1
aI1
aI1
aI1
aF0.7139297625564157
aI1
aI1
aI1
aI1
aI1
aI1
asa(dp660
g2
S"SELECT * FROM lineitem WHERE column1 >= 39716 AND column1 <= 112362 AND column4 >= 5 AND column4 <= 46 AND column3 >= 2 AND column3 <= 6 AND column10 >= '1997-03-30' AND column10 <= '1998-06-18' AND column11 >= '1996-02-15' AND column11 <= '1998-09-16';"
p661
sg4
(lp662
I1
aF0.36323777768335247
aI1
aF0.7142876900760929
aF0.8401590344621881
aI1
aI1
aI1
aI1
aI1
aF0.1854342828910479
aF0.39251018335453736
aI1
aI1
aI1
aI1
aI1
asa(dp663
g2
S"SELECT * FROM lineitem WHERE column11 >= '1992-02-23' AND column11 <= '1997-10-24' AND column0 >= 1102997 AND column0 <= 3963853 AND column10 >= '1997-03-21' AND column10 <= '1997-04-23' AND column1 >= 77162 AND column1 <= 103603 AND column12 >= '1996-08-12' AND column12 <= '1996-09-01';"
p664
sg4
(lp665
F0.47684960462173076
aF0.13235986379424833
aI1
aI1
aI1
aI1
aI1
aI1
aI1
aI1
aF0.014077649276021606
aF0.8559263415824963
aF0.008703737493157636
aI1
aI1
aI1
aI1
asa(dp666
g2
S"SELECT * FROM lineitem WHERE column2 >= 2392 AND column2 <= 3916 AND column0 >= 3576216 AND column0 <= 5877433 AND column1 >= 88850 AND column1 <= 170420 AND column4 >= 6 AND column4 <= 23 AND column10 >= '1992-03-30' AND column10 <= '1993-11-19';"
p667
sg4
(lp668
F0.383431355150582
aF0.4077929219333085
aF0.15237364433702175
aI1
aF0.35989112204778534
aI1
aI1
aI1
aI1
aI1
aF0.2465765682449304
aI1
aI1
aI1
aI1
aI1
aI1
asa(dp669
g2
S"SELECT * FROM lineitem WHERE column0 >= 3393723 AND column0 <= 4289244 AND column12 >= '1995-02-02' AND column12 <= '1995-04-18' AND column3 >= 1 AND column3 <= 6 AND column1 >= 3125 AND column1 <= 183332 AND column4 >= 6 AND column4 <= 26;"
p670
sg4
(lp671
F0.1492747718586986
aF0.901048704304045
aI1
aF0.9642370753255799
aF0.4199302974481001
aI1
aI1
aI1
aI1
aI1
aI1
aI1
aF0.03168874969485346
aI1
aI1
aI1
aI1
asa(dp672
g2
S"SELECT * FROM lineitem WHERE column2 >= 7914 AND column2 <= 9875 AND column12 >= '1992-11-18' AND column12 <= '1998-12-04' AND column4 >= 1 AND column4 <= 21 AND column1 >= 9384 AND column1 <= 124480 AND column3 >= 1 AND column3 <= 2;"
p673
sg4
(lp674
I1
aF0.5754376405444565
aF0.1961082880716655
aF0.46421066400720523
aF0.41963868983197566
aI1
aI1
aI1
aI1
aI1
aI1
aI1
aF0.8980741399866528
aI1
aI1
aI1
aI1
asa(dp675
g2
S"SELECT * FROM lineitem WHERE column0 >= 1713726 AND column0 <= 3278562 AND column12 >= '1993-05-05' AND column12 <= '1997-09-29' AND column3 >= 5 AND column3 <= 5 AND column2 >= 3510 AND column2 <= 9888 AND column4 >= 35 AND column4 <= 46;"
p676
sg4
(lp677
F0.26069037686535146
aI1
aF0.6378198414820999
aF0.10719279345932449
aF0.2402496827725719
aI1
aI1
aI1
aI1
aI1
aI1
aI1
aF0.6695527489016807
aI1
aI1
aI1
aI1
asa(dp678
g2
S"SELECT * FROM lineitem WHERE column1 >= 67273 AND column1 <= 106180 AND column4 >= 7 AND column4 <= 17 AND column12 >= '1994-07-27' AND column12 <= '1997-12-16' AND column0 >= 96450 AND column0 <= 520619 AND column3 >= 1 AND column3 <= 6;"
p679
sg4
(lp680
F0.07072284529049534
aF0.1946395854839395
aI1
aF0.9642370753255799
aF0.21996212433648854
aI1
aI1
aI1
aI1
aI1
aI1
aI1
aF0.5158362098341752
aI1
aI1
aI1
aI1
asa(dp681
g2
S"SELECT * FROM lineitem WHERE column12 >= '1993-03-14' AND column12 <= '1996-02-14' AND column4 >= 35 AND column4 <= 40 AND column2 >= 4379 AND column2 <= 6603 AND column1 >= 126875 AND column1 <= 159917 AND column3 >= 5 AND column3 <= 5;"
p682
sg4
(lp683
I1
aF0.16524020552504784
aF0.22272773096781234
aF0.10719279345932449
aF0.12018299627658732
aI1
aI1
aI1
aI1
aI1
aI1
aI1
aF0.4442861987114276
aI1
aI1
aI1
aI1
asa(dp684
g2
S"SELECT * FROM lineitem WHERE column4 >= 24 AND column4 <= 41 AND column12 >= '1996-10-01' AND column12 <= '1997-03-20' AND column10 >= '1993-03-11' AND column10 <= '1996-03-09' AND column0 >= 709160 AND column0 <= 2845579 AND column2 >= 3755 AND column2 <= 4782;"
p685
sg4
(lp686
F0.35599374460005184
aI1
aF0.10268553951158224
aI1
aF0.36035752760066087
aI1
aI1
aI1
aI1
aI1
aF0.4553949491894558
aI1
aF0.0715735063649611
aI1
aI1
aI1
aI1
asa(dp687
g2
S"SELECT * FROM lineitem WHERE column11 >= '1992-03-21' AND column11 <= '1994-09-22' AND column10 >= '1995-06-09' AND column10 <= '1997-09-13' AND column0 >= 1964134 AND column0 <= 5208508 AND column12 >= '1992-02-06' AND column12 <= '1997-04-12' AND column4 >= 5 AND column4 <= 13;"
p688
sg4
(lp689
F0.5405995285954595
aI1
aI1
aI1
aF0.1797357701732066
aI1
aI1
aI1
aI1
aI1
aF0.34486566470289765
aF0.37931368897798196
aF0.7689369569328878
aI1
aI1
aI1
aI1
asa(dp690
g2
S"SELECT * FROM lineitem WHERE column2 >= 2342 AND column2 <= 6879 AND column1 >= 100349 AND column1 <= 157849 AND column10 >= '1992-06-22' AND column10 <= '1997-10-14' AND column3 >= 3 AND column3 <= 5 AND column4 >= 12 AND column4 <= 41;"
p691
sg4
(lp692
I1
aF0.2873258165221543
aF0.4536369718465344
aF0.42852922283237643
aF0.6003639263049233
aI1
aI1
aI1
aI1
aI1
aF0.8068857722977764
aI1
aI1
aI1
aI1
aI1
aI1
asa(dp693
g2
S"SELECT * FROM lineitem WHERE column3 >= 4 AND column3 <= 5 AND column4 >= 23 AND column4 <= 31 AND column2 >= 6052 AND column2 <= 7970 AND column10 >= '1993-02-28' AND column10 <= '1997-07-29' AND column12 >= '1996-05-06' AND column12 <= '1997-01-21';"
p694
sg4
(lp695
I1
aI1
aF0.19202211552160686
aF0.24999970839238386
aF0.18009053166733738
aI1
aI1
aI1
aI1
aI1
aF0.6710484460230137
aI1
aF0.10877264020702475
aI1
aI1
aI1
aI1
asa(dp696
g2
S"SELECT * FROM lineitem WHERE column12 >= '1992-08-21' AND column12 <= '1997-04-20' AND column0 >= 1779033 AND column0 <= 5326103 AND column1 >= 88712 AND column1 <= 193810 AND column3 >= 6 AND column3 <= 6 AND column4 >= 12 AND column4 <= 43;"
p697
sg4
(lp698
F0.591225776780202
aF0.5257137096404645
aI1
aF0.07149718848599826
aF0.6403988192391041
aI1
aI1
aI1
aI1
aI1
aI1
aI1
aF0.7083522253410351
aI1
aI1
aI1
aI1
asa(dp699
g2
S"SELECT * FROM lineitem WHERE column10 >= '1992-04-05' AND column10 <= '1995-09-30' AND column2 >= 6664 AND column2 <= 8481 AND column3 >= 2 AND column3 <= 3 AND column4 >= 28 AND column4 <= 30 AND column1 >= 15496 AND column1 <= 105514;"
p700
sg4
(lp701
I1
aF0.450203500457824
aF0.18176835857405543
aF0.3927907931977108
aF0.059968689673674413
aI1
aI1
aI1
aI1
aI1
aF0.5277681269542918
aI1
aI1
aI1
aI1
aI1
aI1
asa(dp702
g2
S"SELECT * FROM lineitem WHERE column12 >= '1994-02-16' AND column12 <= '1995-02-09' AND column1 >= 82142 AND column1 <= 130620 AND column0 >= 2264630 AND column0 <= 2553380 AND column10 >= '1993-03-24' AND column10 <= '1996-06-20' AND column11 >= '1995-12-16' AND column11 <= '1998-05-08';"
p703
sg4
(lp704
F0.04817841053853261
aF0.24229993426331167
aI1
aI1
aI1
aI1
aI1
aI1
aI1
aI1
aF0.49269556248193075
aF0.36411993238035967
aF0.1491754586362928
aI1
aI1
aI1
aI1
asa(dp705
g2
S"SELECT * FROM lineitem WHERE column3 >= 2 AND column3 <= 6 AND column0 >= 543359 AND column0 <= 2178335 AND column11 >= '1995-05-31' AND column11 <= '1997-03-14' AND column2 >= 3501 AND column2 <= 4832 AND column1 >= 2436 AND column1 <= 64084;"
p706
sg4
(lp707
F0.2724020052606014
aF0.30817709413843697
aF0.13299940095464002
aF0.7142876900760929
aI1
aI1
aI1
aI1
aI1
aI1
aI1
aF0.27243049949051984
aI1
aI1
aI1
aI1
aI1
asa(dp708
g2
S"SELECT * FROM lineitem WHERE column10 >= '1994-07-31' AND column10 <= '1995-10-30' AND column1 >= 13352 AND column1 <= 82567 AND column0 >= 1481819 AND column0 <= 5792168 AND column2 >= 1274 AND column2 <= 5433 AND column11 >= '1995-02-01' AND column11 <= '1996-06-19';"
p709
sg4
(lp710
F0.7183978577671355
aF0.3459791058977224
aF0.4157038199764548
aI1
aI1
aI1
aI1
aI1
aI1
aI1
aF0.19056107804836186
aF0.21048954253430346
aI1
aI1
aI1
aI1
aI1
asa(dp711
g2
S"SELECT * FROM lineitem WHERE column3 >= 3 AND column3 <= 4 AND column11 >= '1997-02-01' AND column11 <= '1998-02-14' AND column10 >= '1994-01-25' AND column10 <= '1994-08-29' AND column2 >= 2187 AND column2 <= 9868 AND column12 >= '1994-11-16' AND column12 <= '1995-07-28';"
p712
sg4
(lp713
I1
aI1
aF0.7681206222406629
aF0.32133642937305196
aI1
aI1
aI1
aI1
aI1
aI1
aF0.09021356508640334
aF0.15774439009433924
aF0.10633246767529575
aI1
aI1
aI1
aI1
asa(dp714
g2
S"SELECT * FROM lineitem WHERE column12 >= '1997-02-25' AND column12 <= '1998-08-20' AND column4 >= 36 AND column4 <= 42 AND column2 >= 5869 AND column2 <= 8682 AND column10 >= '1992-04-27' AND column10 <= '1997-12-08' AND column1 >= 27094 AND column1 <= 108241;"
p715
sg4
(lp716
I1
aF0.4059386307606043
aF0.2815631501287656
aI1
aF0.14018994486949726
aI1
aI1
aI1
aI1
aI1
aF0.852642339926165
aI1
aF0.22536353055172995
aI1
aI1
aI1
aI1
asa(dp717
g2
S"SELECT * FROM lineitem WHERE column0 >= 1816347 AND column0 <= 2352203 AND column2 >= 3523 AND column2 <= 7694 AND column1 >= 80083 AND column1 <= 119634 AND column4 >= 26 AND column4 <= 29 AND column12 >= '1992-03-24' AND column12 <= '1996-11-12';"
p718
sg4
(lp719
F0.08924159524362983
aF0.1977504555327546
aF0.4172331769483346
aI1
aF0.07997197234226736
aI1
aI1
aI1
aI1
aI1
aI1
aI1
aF0.6988474833846147
aI1
aI1
aI1
aI1
asa(dp720
g2
S"SELECT * FROM lineitem WHERE column11 >= '1994-08-04' AND column11 <= '1998-03-05' AND column12 >= '1996-03-28' AND column12 <= '1996-06-18' AND column4 >= 21 AND column4 <= 42 AND column10 >= '1995-12-25' AND column10 <= '1996-03-16' AND column1 >= 18436 AND column1 <= 85712;"
p721
sg4
(lp722
I1
aF0.33634139086834913
aI1
aI1
aF0.4404709712949794
aI1
aI1
aI1
aI1
aI1
aF0.03438187100445493
aF0.5453290708631502
aF0.03440336665158639
aI1
aI1
aI1
aI1
asa(dp723
g2
S"SELECT * FROM lineitem WHERE column11 >= '1996-07-06' AND column11 <= '1998-10-08' AND column4 >= 12 AND column4 <= 42 AND column12 >= '1995-03-02' AND column12 <= '1996-04-25' AND column0 >= 2846459 AND column0 <= 3230183 AND column2 >= 9277 AND column2 <= 9359;"
p724
sg4
(lp725
F0.06388856256608037
aI1
aF0.008293987134271976
aI1
aF0.6204218645724241
aI1
aI1
aI1
aI1
aI1
aI1
aF0.3388563815827295
aF0.17557477944049663
aI1
aI1
aI1
aI1
asa(dp726
g2
S"SELECT * FROM lineitem WHERE column12 >= '1994-08-06' AND column12 <= '1997-06-10' AND column3 >= 1 AND column3 <= 1 AND column10 >= '1992-06-27' AND column10 <= '1994-01-24' AND column1 >= 83971 AND column1 <= 104085 AND column11 >= '1997-10-30' AND column11 <= '1998-04-22';"
p727
sg4
(lp728
I1
aF0.10074759861128121
aI1
aF0.24994938524948698
aI1
aI1
aI1
aI1
aI1
aI1
aF0.23887312819154122
aF0.07269727880104279
aF0.4330738025549826
aI1
aI1
aI1
aI1
asa(dp729
g2
S"SELECT * FROM lineitem WHERE column0 >= 4084190 AND column0 <= 4427072 AND column11 >= '1994-07-29' AND column11 <= '1998-03-20' AND column4 >= 7 AND column4 <= 25 AND column2 >= 423 AND column2 <= 5558 AND column1 >= 8175 AND column1 <= 66033;"
p730
sg4
(lp731
F0.057205249270356084
aF0.2893004166656252
aF0.5134495264708896
aI1
aF0.3800826999199329
aI1
aI1
aI1
aI1
aI1
aI1
aF0.5540944625380028
aI1
aI1
aI1
aI1
aI1
asa(dp732
g2
S"SELECT * FROM lineitem WHERE column10 >= '1995-03-29' AND column10 <= '1998-11-18' AND column4 >= 3 AND column4 <= 20 AND column0 >= 4433411 AND column0 <= 4612733 AND column2 >= 5596 AND column2 <= 6095 AND column1 >= 42891 AND column1 <= 176803;"
p733
sg4
(lp734
F0.029866785309308197
aF0.6694619339583734
aF0.049984711429268906
aI1
aF0.3596863301848042
aI1
aI1
aI1
aI1
aI1
aF0.5343892861695506
aI1
aI1
aI1
aI1
aI1
aI1
asa(dp735
g2
S"SELECT * FROM lineitem WHERE column4 >= 9 AND column4 <= 48 AND column0 >= 4053008 AND column0 <= 5667217 AND column3 >= 2 AND column3 <= 4 AND column10 >= '1996-02-14' AND column10 <= '1996-12-03' AND column2 >= 4900 AND column2 <= 7039;"
p736
sg4
(lp737
F0.26887172014333766
aI1
aF0.214138470293099
aF0.5355977081307702
aF0.8003392646322453
aI1
aI1
aI1
aI1
aI1
aF0.12228190458098902
aI1
aI1
aI1
aI1
aI1
aI1
asa(dp738
g2
S"SELECT * FROM lineitem WHERE column11 >= '1992-05-03' AND column11 <= '1996-04-05' AND column4 >= 31 AND column4 <= 46 AND column1 >= 109178 AND column1 <= 143075 AND column10 >= '1994-08-27' AND column10 <= '1995-11-14' AND column0 >= 752153 AND column0 <= 2563977;"
p739
sg4
(lp740
F0.3018355449688105
aF0.1692552258167721
aI1
aI1
aF0.3203477962379285
aI1
aI1
aI1
aI1
aI1
aF0.18564324057711648
aF0.5954327581997979
aI1
aI1
aI1
aI1
aI1
asa(dp741
g2
S"SELECT * FROM lineitem WHERE column2 >= 7294 AND column2 <= 9898 AND column3 >= 1 AND column3 <= 6 AND column12 >= '1994-04-01' AND column12 <= '1994-11-18' AND column4 >= 7 AND column4 <= 36 AND column1 >= 36746 AND column1 <= 68985;"
p742
sg4
(lp743
I1
aF0.16109704451515236
aF0.26043892778379046
aF0.9642370753255799
aF0.6002732779945394
aI1
aI1
aI1
aI1
aI1
aI1
aI1
aF0.09645680083116502
aI1
aI1
aI1
aI1
asa(dp744
g2
S"SELECT * FROM lineitem WHERE column3 >= 6 AND column3 <= 6 AND column4 >= 38 AND column4 <= 47 AND column1 >= 67359 AND column1 <= 68730 AND column2 >= 1028 AND column2 <= 6811 AND column11 >= '1992-09-27' AND column11 <= '1992-11-21';"
p745
sg4
(lp746
I1
aF0.006866442878650406
aF0.5783130582723666
aF0.07149718848599826
aF0.20006698643524687
aI1
aI1
aI1
aI1
aI1
aI1
aF0.023110653426014566
aI1
aI1
aI1
aI1
aI1
asa(dp747
g2
S"SELECT * FROM lineitem WHERE column1 >= 84408 AND column1 <= 91297 AND column2 >= 918 AND column2 <= 8933 AND column4 >= 9 AND column4 <= 19 AND column10 >= '1992-04-08' AND column10 <= '1993-07-26' AND column3 >= 3 AND column3 <= 5;"
p748
sg4
(lp749
I1
aF0.0345436715731731
aF0.8015610172273447
aF0.42852922283237643
aF0.2198829736978262
aI1
aI1
aI1
aI1
aI1
aF0.19534677561127206
aI1
aI1
aI1
aI1
aI1
aI1
asa(dp750
g2
S"SELECT * FROM lineitem WHERE column4 >= 9 AND column4 <= 11 AND column2 >= 826 AND column2 <= 4442 AND column11 >= '1996-10-16' AND column11 <= '1998-02-10' AND column0 >= 2651722 AND column0 <= 4952081 AND column10 >= '1996-08-07' AND column10 <= '1998-10-16';"
p751
sg4
(lp752
F0.38360815268241516
aI1
aF0.3615609505741754
aI1
aF0.059947027393619456
aI1
aI1
aI1
aI1
aI1
aF0.32407287524276335
aF0.20123724945698496
aI1
aI1
aI1
aI1
aI1
asa.